Archive member included because of file (symbol)

c:/chibistudio/tools/gnu tools arm embedded/4.7 2013q1/bin/../lib/gcc/arm-none-eabi/4.7.3/../../../../arm-none-eabi/lib/armv7e-m\libm.a(lib_a-s_cos.o)
                              build/obj/kb_gps.o (cos)
c:/chibistudio/tools/gnu tools arm embedded/4.7 2013q1/bin/../lib/gcc/arm-none-eabi/4.7.3/../../../../arm-none-eabi/lib/armv7e-m\libm.a(lib_a-s_sin.o)
                              build/obj/kb_gps.o (sin)
c:/chibistudio/tools/gnu tools arm embedded/4.7 2013q1/bin/../lib/gcc/arm-none-eabi/4.7.3/../../../../arm-none-eabi/lib/armv7e-m\libm.a(lib_a-w_atan2.o)
                              build/obj/kb_gps.o (atan2)
c:/chibistudio/tools/gnu tools arm embedded/4.7 2013q1/bin/../lib/gcc/arm-none-eabi/4.7.3/../../../../arm-none-eabi/lib/armv7e-m\libm.a(lib_a-w_pow.o)
                              build/obj/kb_gps.o (pow)
c:/chibistudio/tools/gnu tools arm embedded/4.7 2013q1/bin/../lib/gcc/arm-none-eabi/4.7.3/../../../../arm-none-eabi/lib/armv7e-m\libm.a(lib_a-w_sqrt.o)
                              build/obj/kb_gps.o (sqrt)
c:/chibistudio/tools/gnu tools arm embedded/4.7 2013q1/bin/../lib/gcc/arm-none-eabi/4.7.3/../../../../arm-none-eabi/lib/armv7e-m\libm.a(lib_a-e_atan2.o)
                              c:/chibistudio/tools/gnu tools arm embedded/4.7 2013q1/bin/../lib/gcc/arm-none-eabi/4.7.3/../../../../arm-none-eabi/lib/armv7e-m\libm.a(lib_a-w_atan2.o) (__ieee754_atan2)
c:/chibistudio/tools/gnu tools arm embedded/4.7 2013q1/bin/../lib/gcc/arm-none-eabi/4.7.3/../../../../arm-none-eabi/lib/armv7e-m\libm.a(lib_a-e_pow.o)
                              c:/chibistudio/tools/gnu tools arm embedded/4.7 2013q1/bin/../lib/gcc/arm-none-eabi/4.7.3/../../../../arm-none-eabi/lib/armv7e-m\libm.a(lib_a-w_pow.o) (__ieee754_pow)
c:/chibistudio/tools/gnu tools arm embedded/4.7 2013q1/bin/../lib/gcc/arm-none-eabi/4.7.3/../../../../arm-none-eabi/lib/armv7e-m\libm.a(lib_a-e_rem_pio2.o)
                              c:/chibistudio/tools/gnu tools arm embedded/4.7 2013q1/bin/../lib/gcc/arm-none-eabi/4.7.3/../../../../arm-none-eabi/lib/armv7e-m\libm.a(lib_a-s_cos.o) (__ieee754_rem_pio2)
c:/chibistudio/tools/gnu tools arm embedded/4.7 2013q1/bin/../lib/gcc/arm-none-eabi/4.7.3/../../../../arm-none-eabi/lib/armv7e-m\libm.a(lib_a-e_sqrt.o)
                              c:/chibistudio/tools/gnu tools arm embedded/4.7 2013q1/bin/../lib/gcc/arm-none-eabi/4.7.3/../../../../arm-none-eabi/lib/armv7e-m\libm.a(lib_a-w_sqrt.o) (__ieee754_sqrt)
c:/chibistudio/tools/gnu tools arm embedded/4.7 2013q1/bin/../lib/gcc/arm-none-eabi/4.7.3/../../../../arm-none-eabi/lib/armv7e-m\libm.a(lib_a-k_cos.o)
                              c:/chibistudio/tools/gnu tools arm embedded/4.7 2013q1/bin/../lib/gcc/arm-none-eabi/4.7.3/../../../../arm-none-eabi/lib/armv7e-m\libm.a(lib_a-s_cos.o) (__kernel_cos)
c:/chibistudio/tools/gnu tools arm embedded/4.7 2013q1/bin/../lib/gcc/arm-none-eabi/4.7.3/../../../../arm-none-eabi/lib/armv7e-m\libm.a(lib_a-k_rem_pio2.o)
                              c:/chibistudio/tools/gnu tools arm embedded/4.7 2013q1/bin/../lib/gcc/arm-none-eabi/4.7.3/../../../../arm-none-eabi/lib/armv7e-m\libm.a(lib_a-e_rem_pio2.o) (__kernel_rem_pio2)
c:/chibistudio/tools/gnu tools arm embedded/4.7 2013q1/bin/../lib/gcc/arm-none-eabi/4.7.3/../../../../arm-none-eabi/lib/armv7e-m\libm.a(lib_a-k_sin.o)
                              c:/chibistudio/tools/gnu tools arm embedded/4.7 2013q1/bin/../lib/gcc/arm-none-eabi/4.7.3/../../../../arm-none-eabi/lib/armv7e-m\libm.a(lib_a-s_cos.o) (__kernel_sin)
c:/chibistudio/tools/gnu tools arm embedded/4.7 2013q1/bin/../lib/gcc/arm-none-eabi/4.7.3/../../../../arm-none-eabi/lib/armv7e-m\libm.a(lib_a-s_atan.o)
                              c:/chibistudio/tools/gnu tools arm embedded/4.7 2013q1/bin/../lib/gcc/arm-none-eabi/4.7.3/../../../../arm-none-eabi/lib/armv7e-m\libm.a(lib_a-e_atan2.o) (atan)
c:/chibistudio/tools/gnu tools arm embedded/4.7 2013q1/bin/../lib/gcc/arm-none-eabi/4.7.3/../../../../arm-none-eabi/lib/armv7e-m\libm.a(lib_a-s_fabs.o)
                              c:/chibistudio/tools/gnu tools arm embedded/4.7 2013q1/bin/../lib/gcc/arm-none-eabi/4.7.3/../../../../arm-none-eabi/lib/armv7e-m\libm.a(lib_a-e_atan2.o) (fabs)
c:/chibistudio/tools/gnu tools arm embedded/4.7 2013q1/bin/../lib/gcc/arm-none-eabi/4.7.3/../../../../arm-none-eabi/lib/armv7e-m\libm.a(lib_a-s_finite.o)
                              c:/chibistudio/tools/gnu tools arm embedded/4.7 2013q1/bin/../lib/gcc/arm-none-eabi/4.7.3/../../../../arm-none-eabi/lib/armv7e-m\libm.a(lib_a-w_pow.o) (finite)
c:/chibistudio/tools/gnu tools arm embedded/4.7 2013q1/bin/../lib/gcc/arm-none-eabi/4.7.3/../../../../arm-none-eabi/lib/armv7e-m\libm.a(lib_a-s_floor.o)
                              c:/chibistudio/tools/gnu tools arm embedded/4.7 2013q1/bin/../lib/gcc/arm-none-eabi/4.7.3/../../../../arm-none-eabi/lib/armv7e-m\libm.a(lib_a-k_rem_pio2.o) (floor)
c:/chibistudio/tools/gnu tools arm embedded/4.7 2013q1/bin/../lib/gcc/arm-none-eabi/4.7.3/../../../../arm-none-eabi/lib/armv7e-m\libm.a(lib_a-s_fpclassify.o)
                              c:/chibistudio/tools/gnu tools arm embedded/4.7 2013q1/bin/../lib/gcc/arm-none-eabi/4.7.3/../../../../arm-none-eabi/lib/armv7e-m\libm.a(lib_a-w_pow.o) (__fpclassifyd)
c:/chibistudio/tools/gnu tools arm embedded/4.7 2013q1/bin/../lib/gcc/arm-none-eabi/4.7.3/../../../../arm-none-eabi/lib/armv7e-m\libm.a(lib_a-s_lib_ver.o)
                              c:/chibistudio/tools/gnu tools arm embedded/4.7 2013q1/bin/../lib/gcc/arm-none-eabi/4.7.3/../../../../arm-none-eabi/lib/armv7e-m\libm.a(lib_a-w_pow.o) (__fdlib_version)
c:/chibistudio/tools/gnu tools arm embedded/4.7 2013q1/bin/../lib/gcc/arm-none-eabi/4.7.3/../../../../arm-none-eabi/lib/armv7e-m\libm.a(lib_a-s_matherr.o)
                              c:/chibistudio/tools/gnu tools arm embedded/4.7 2013q1/bin/../lib/gcc/arm-none-eabi/4.7.3/../../../../arm-none-eabi/lib/armv7e-m\libm.a(lib_a-w_pow.o) (matherr)
c:/chibistudio/tools/gnu tools arm embedded/4.7 2013q1/bin/../lib/gcc/arm-none-eabi/4.7.3/../../../../arm-none-eabi/lib/armv7e-m\libm.a(lib_a-s_nan.o)
                              c:/chibistudio/tools/gnu tools arm embedded/4.7 2013q1/bin/../lib/gcc/arm-none-eabi/4.7.3/../../../../arm-none-eabi/lib/armv7e-m\libm.a(lib_a-e_pow.o) (nan)
c:/chibistudio/tools/gnu tools arm embedded/4.7 2013q1/bin/../lib/gcc/arm-none-eabi/4.7.3/../../../../arm-none-eabi/lib/armv7e-m\libm.a(lib_a-s_rint.o)
                              c:/chibistudio/tools/gnu tools arm embedded/4.7 2013q1/bin/../lib/gcc/arm-none-eabi/4.7.3/../../../../arm-none-eabi/lib/armv7e-m\libm.a(lib_a-w_pow.o) (rint)
c:/chibistudio/tools/gnu tools arm embedded/4.7 2013q1/bin/../lib/gcc/arm-none-eabi/4.7.3/../../../../arm-none-eabi/lib/armv7e-m\libm.a(lib_a-s_scalbn.o)
                              c:/chibistudio/tools/gnu tools arm embedded/4.7 2013q1/bin/../lib/gcc/arm-none-eabi/4.7.3/../../../../arm-none-eabi/lib/armv7e-m\libm.a(lib_a-e_pow.o) (scalbn)
c:/chibistudio/tools/gnu tools arm embedded/4.7 2013q1/bin/../lib/gcc/arm-none-eabi/4.7.3/../../../../arm-none-eabi/lib/armv7e-m\libm.a(lib_a-s_copysign.o)
                              c:/chibistudio/tools/gnu tools arm embedded/4.7 2013q1/bin/../lib/gcc/arm-none-eabi/4.7.3/../../../../arm-none-eabi/lib/armv7e-m\libm.a(lib_a-s_scalbn.o) (copysign)
c:/chibistudio/tools/gnu tools arm embedded/4.7 2013q1/bin/../lib/gcc/arm-none-eabi/4.7.3/armv7e-m\libgcc.a(_arm_addsubdf3.o)
                              build/obj/chprintf.o (__aeabi_dsub)
c:/chibistudio/tools/gnu tools arm embedded/4.7 2013q1/bin/../lib/gcc/arm-none-eabi/4.7.3/armv7e-m\libgcc.a(_arm_muldivdf3.o)
                              build/obj/chprintf.o (__aeabi_dmul)
c:/chibistudio/tools/gnu tools arm embedded/4.7 2013q1/bin/../lib/gcc/arm-none-eabi/4.7.3/armv7e-m\libgcc.a(_arm_cmpdf2.o)
                              c:/chibistudio/tools/gnu tools arm embedded/4.7 2013q1/bin/../lib/gcc/arm-none-eabi/4.7.3/../../../../arm-none-eabi/lib/armv7e-m\libm.a(lib_a-w_pow.o) (__aeabi_dcmpeq)
c:/chibistudio/tools/gnu tools arm embedded/4.7 2013q1/bin/../lib/gcc/arm-none-eabi/4.7.3/armv7e-m\libgcc.a(_arm_fixdfsi.o)
                              build/obj/chprintf.o (__aeabi_d2iz)
c:/chibistudio/tools/gnu tools arm embedded/4.7 2013q1/bin/../lib/gcc/arm-none-eabi/4.7.3/armv7e-m\libgcc.a(_arm_truncdfsf2.o)
                              build/obj/chprintf.o (__aeabi_d2f)
c:/chibistudio/tools/gnu tools arm embedded/4.7 2013q1/bin/../lib/gcc/arm-none-eabi/4.7.3/../../../../arm-none-eabi/lib/armv7e-m\libc.a(lib_a-errno.o)
                              c:/chibistudio/tools/gnu tools arm embedded/4.7 2013q1/bin/../lib/gcc/arm-none-eabi/4.7.3/../../../../arm-none-eabi/lib/armv7e-m\libm.a(lib_a-w_pow.o) (__errno)
c:/chibistudio/tools/gnu tools arm embedded/4.7 2013q1/bin/../lib/gcc/arm-none-eabi/4.7.3/../../../../arm-none-eabi/lib/armv7e-m\libc.a(lib_a-impure.o)
                              c:/chibistudio/tools/gnu tools arm embedded/4.7 2013q1/bin/../lib/gcc/arm-none-eabi/4.7.3/../../../../arm-none-eabi/lib/armv7e-m\libc.a(lib_a-errno.o) (_impure_ptr)
c:/chibistudio/tools/gnu tools arm embedded/4.7 2013q1/bin/../lib/gcc/arm-none-eabi/4.7.3/../../../../arm-none-eabi/lib/armv7e-m\libc.a(lib_a-lcltime_r.o)
                              build/obj/chrtclib.o (localtime_r)
c:/chibistudio/tools/gnu tools arm embedded/4.7 2013q1/bin/../lib/gcc/arm-none-eabi/4.7.3/../../../../arm-none-eabi/lib/armv7e-m\libc.a(lib_a-memcpy.o)
                              build/obj/sdc_lld.o (memcpy)
c:/chibistudio/tools/gnu tools arm embedded/4.7 2013q1/bin/../lib/gcc/arm-none-eabi/4.7.3/../../../../arm-none-eabi/lib/armv7e-m\libc.a(lib_a-memset.o)
                              build/obj/kb_config.o (memset)
c:/chibistudio/tools/gnu tools arm embedded/4.7 2013q1/bin/../lib/gcc/arm-none-eabi/4.7.3/../../../../arm-none-eabi/lib/armv7e-m\libc.a(lib_a-mktime.o)
                              build/obj/chrtclib.o (mktime)
c:/chibistudio/tools/gnu tools arm embedded/4.7 2013q1/bin/../lib/gcc/arm-none-eabi/4.7.3/../../../../arm-none-eabi/lib/armv7e-m\libc.a(lib_a-mktm_r.o)
                              c:/chibistudio/tools/gnu tools arm embedded/4.7 2013q1/bin/../lib/gcc/arm-none-eabi/4.7.3/../../../../arm-none-eabi/lib/armv7e-m\libc.a(lib_a-mktime.o) (__tzcalc_limits)
c:/chibistudio/tools/gnu tools arm embedded/4.7 2013q1/bin/../lib/gcc/arm-none-eabi/4.7.3/../../../../arm-none-eabi/lib/armv7e-m\libc.a(lib_a-strcpy.o)
                              build/obj/kb_screen.o (strcpy)
c:/chibistudio/tools/gnu tools arm embedded/4.7 2013q1/bin/../lib/gcc/arm-none-eabi/4.7.3/../../../../arm-none-eabi/lib/armv7e-m\libc.a(lib_a-tzlock.o)
                              c:/chibistudio/tools/gnu tools arm embedded/4.7 2013q1/bin/../lib/gcc/arm-none-eabi/4.7.3/../../../../arm-none-eabi/lib/armv7e-m\libc.a(lib_a-mktm_r.o) (__tz_lock)
c:/chibistudio/tools/gnu tools arm embedded/4.7 2013q1/bin/../lib/gcc/arm-none-eabi/4.7.3/../../../../arm-none-eabi/lib/armv7e-m\libc.a(lib_a-tzvars.o)
                              c:/chibistudio/tools/gnu tools arm embedded/4.7 2013q1/bin/../lib/gcc/arm-none-eabi/4.7.3/../../../../arm-none-eabi/lib/armv7e-m\libc.a(lib_a-mktime.o) (_daylight)
c:/chibistudio/tools/gnu tools arm embedded/4.7 2013q1/bin/../lib/gcc/arm-none-eabi/4.7.3/../../../../arm-none-eabi/lib/armv7e-m\libc.a(lib_a-div.o)
                              c:/chibistudio/tools/gnu tools arm embedded/4.7 2013q1/bin/../lib/gcc/arm-none-eabi/4.7.3/../../../../arm-none-eabi/lib/armv7e-m\libc.a(lib_a-mktime.o) (div)
c:/chibistudio/tools/gnu tools arm embedded/4.7 2013q1/bin/../lib/gcc/arm-none-eabi/4.7.3/../../../../arm-none-eabi/lib/armv7e-m\libc.a(lib_a-gettzinfo.o)
                              c:/chibistudio/tools/gnu tools arm embedded/4.7 2013q1/bin/../lib/gcc/arm-none-eabi/4.7.3/../../../../arm-none-eabi/lib/armv7e-m\libc.a(lib_a-mktime.o) (__gettzinfo)

Discarded input sections

 .data          0x00000000        0x0 build/obj/kb_debug_asm.o
 .bss           0x00000000        0x0 build/obj/kb_debug_asm.o
 .text          0x00000000        0x0 build/obj/crt0.o
 .data          0x00000000        0x0 build/obj/crt0.o
 .bss           0x00000000        0x0 build/obj/crt0.o
 .text.__early_init
                0x00000000       0x10 build/obj/crt0.o
 .text          0x00000000        0x0 build/obj/vectors.o
 .data          0x00000000        0x0 build/obj/vectors.o
 .bss           0x00000000        0x0 build/obj/vectors.o
 .text          0x00000000        0x0 build/obj/chcore.o
 .data          0x00000000        0x0 build/obj/chcore.o
 .bss           0x00000000        0x0 build/obj/chcore.o
 .text          0x00000000        0x0 build/obj/chcore_v7m.o
 .data          0x00000000        0x0 build/obj/chcore_v7m.o
 .bss           0x00000000        0x0 build/obj/chcore_v7m.o
 .text          0x00000000        0x0 build/obj/nvic.o
 .data          0x00000000        0x0 build/obj/nvic.o
 .bss           0x00000000        0x0 build/obj/nvic.o
 .text          0x00000000        0x0 build/obj/chsys.o
 .data          0x00000000        0x0 build/obj/chsys.o
 .bss           0x00000000        0x0 build/obj/chsys.o
 .text          0x00000000        0x0 build/obj/chdebug.o
 .data          0x00000000        0x0 build/obj/chdebug.o
 .bss           0x00000000        0x0 build/obj/chdebug.o
 .text.dbg_check_suspend
                0x00000000       0x30 build/obj/chdebug.o
 .text          0x00000000        0x0 build/obj/chlists.o
 .data          0x00000000        0x0 build/obj/chlists.o
 .bss           0x00000000        0x0 build/obj/chlists.o
 .debug_info    0x00000000       0x79 build/obj/chlists.o
 .debug_abbrev  0x00000000       0x26 build/obj/chlists.o
 .debug_aranges
                0x00000000       0x18 build/obj/chlists.o
 .debug_line    0x00000000       0x1d build/obj/chlists.o
 .debug_str     0x00000000      0x128 build/obj/chlists.o
 .comment       0x00000000       0x71 build/obj/chlists.o
 .ARM.attributes
                0x00000000       0x39 build/obj/chlists.o
 .text          0x00000000        0x0 build/obj/chvt.o
 .data          0x00000000        0x0 build/obj/chvt.o
 .bss           0x00000000        0x0 build/obj/chvt.o
 .text.chTimeIsWithin
                0x00000000       0x70 build/obj/chvt.o
 .text          0x00000000        0x0 build/obj/chschd.o
 .data          0x00000000        0x0 build/obj/chschd.o
 .bss           0x00000000        0x0 build/obj/chschd.o
 .text          0x00000000        0x0 build/obj/chthreads.o
 .data          0x00000000        0x0 build/obj/chthreads.o
 .bss           0x00000000        0x0 build/obj/chthreads.o
 .text.chThdSetPriority
                0x00000000       0xa0 build/obj/chthreads.o
 .text.chThdResume
                0x00000000       0x50 build/obj/chthreads.o
 .text.chThdYield
                0x00000000       0x40 build/obj/chthreads.o
 .text          0x00000000        0x0 build/obj/chdynamic.o
 .data          0x00000000        0x0 build/obj/chdynamic.o
 .bss           0x00000000        0x0 build/obj/chdynamic.o
 .text.chThdAddRef
                0x00000000       0x50 build/obj/chdynamic.o
 .text.chThdCreateFromHeap
                0x00000000       0xa0 build/obj/chdynamic.o
 .text.chThdCreateFromMemoryPool
                0x00000000       0xb0 build/obj/chdynamic.o
 .text          0x00000000        0x0 build/obj/chregistry.o
 .data          0x00000000        0x0 build/obj/chregistry.o
 .bss           0x00000000        0x0 build/obj/chregistry.o
 .text.chRegFirstThread
                0x00000000       0x50 build/obj/chregistry.o
 .rodata        0x00000000       0x18 build/obj/chregistry.o
 .text.chRegNextThread
                0x00000000       0x70 build/obj/chregistry.o
 .text          0x00000000        0x0 build/obj/chsem.o
 .data          0x00000000        0x0 build/obj/chsem.o
 .bss           0x00000000        0x0 build/obj/chsem.o
 .text.lifo_remove
                0x00000000       0x30 build/obj/chsem.o
 .text.chSemReset
                0x00000000       0x30 build/obj/chsem.o
 .text.chSemResetI
                0x00000000       0x90 build/obj/chsem.o
 .text.chSemWaitTimeout
                0x00000000       0x40 build/obj/chsem.o
 .text.chSemAddCounterI
                0x00000000       0xa0 build/obj/chsem.o
 .text.chSemSignalWait
                0x00000000      0x120 build/obj/chsem.o
 .text          0x00000000        0x0 build/obj/chmtx.o
 .data          0x00000000        0x0 build/obj/chmtx.o
 .bss           0x00000000        0x0 build/obj/chmtx.o
 .text.chMtxTryLock
                0x00000000       0x40 build/obj/chmtx.o
 .text.chMtxTryLockS
                0x00000000       0x60 build/obj/chmtx.o
 .text.chMtxUnlockS
                0x00000000       0xd0 build/obj/chmtx.o
 .text.chMtxUnlockAll
                0x00000000       0x90 build/obj/chmtx.o
 .text          0x00000000        0x0 build/obj/chcond.o
 .data          0x00000000        0x0 build/obj/chcond.o
 .bss           0x00000000        0x0 build/obj/chcond.o
 .text.prio_insert
                0x00000000       0x50 build/obj/chcond.o
 .text.fifo_remove
                0x00000000       0x30 build/obj/chcond.o
 .rodata        0x00000000       0xa8 build/obj/chcond.o
 .text.chCondInit
                0x00000000       0x30 build/obj/chcond.o
 .text.chCondSignal
                0x00000000       0x60 build/obj/chcond.o
 .text.chCondSignalI
                0x00000000       0x50 build/obj/chcond.o
 .text.chCondBroadcast
                0x00000000       0x30 build/obj/chcond.o
 .text.chCondBroadcastI
                0x00000000       0x50 build/obj/chcond.o
 .text.chCondWait
                0x00000000       0x30 build/obj/chcond.o
 .text.chCondWaitS
                0x00000000       0x70 build/obj/chcond.o
 .text.chCondWaitTimeout
                0x00000000       0x40 build/obj/chcond.o
 .text.chCondWaitTimeoutS
                0x00000000       0x90 build/obj/chcond.o
 .debug_info    0x00000000      0x8d4 build/obj/chcond.o
 .debug_abbrev  0x00000000      0x1cc build/obj/chcond.o
 .debug_loc     0x00000000      0x1cc build/obj/chcond.o
 .debug_aranges
                0x00000000       0x70 build/obj/chcond.o
 .debug_ranges  0x00000000       0x60 build/obj/chcond.o
 .debug_line    0x00000000      0x2cd build/obj/chcond.o
 .debug_str     0x00000000      0x3a5 build/obj/chcond.o
 .comment       0x00000000       0x71 build/obj/chcond.o
 .ARM.attributes
                0x00000000       0x39 build/obj/chcond.o
 .debug_frame   0x00000000      0x134 build/obj/chcond.o
 .text          0x00000000        0x0 build/obj/chevents.o
 .data          0x00000000        0x0 build/obj/chevents.o
 .bss           0x00000000        0x0 build/obj/chevents.o
 .text.chEvtRegisterMask
                0x00000000       0x70 build/obj/chevents.o
 .text.chEvtUnregister
                0x00000000       0x70 build/obj/chevents.o
 .text.chEvtGetAndClearEvents
                0x00000000       0x60 build/obj/chevents.o
 .text.chEvtAddEvents
                0x00000000       0x50 build/obj/chevents.o
 .text.chEvtGetAndClearFlags
                0x00000000       0x40 build/obj/chevents.o
 .text.chEvtSignal
                0x00000000       0x50 build/obj/chevents.o
 .text.chEvtBroadcastFlags
                0x00000000       0x30 build/obj/chevents.o
 .text.chEvtGetAndClearFlagsI
                0x00000000       0x20 build/obj/chevents.o
 .text.chEvtDispatch
                0x00000000       0x90 build/obj/chevents.o
 .text.chEvtWaitOne
                0x00000000       0x80 build/obj/chevents.o
 .text.chEvtWaitAny
                0x00000000       0x70 build/obj/chevents.o
 .text.chEvtWaitAll
                0x00000000       0x60 build/obj/chevents.o
 .text.chEvtWaitOneTimeout
                0x00000000       0xb0 build/obj/chevents.o
 .text.chEvtWaitAnyTimeout
                0x00000000       0xa0 build/obj/chevents.o
 .text.chEvtWaitAllTimeout
                0x00000000       0xa0 build/obj/chevents.o
 .text          0x00000000        0x0 build/obj/chmsg.o
 .data          0x00000000        0x0 build/obj/chmsg.o
 .bss           0x00000000        0x0 build/obj/chmsg.o
 .text.queue_insert
                0x00000000       0x30 build/obj/chmsg.o
 .text.fifo_remove
                0x00000000       0x30 build/obj/chmsg.o
 .rodata        0x00000000       0x24 build/obj/chmsg.o
 .text.chMsgSend
                0x00000000       0x90 build/obj/chmsg.o
 .text.chMsgWait
                0x00000000       0x70 build/obj/chmsg.o
 .text.chMsgRelease
                0x00000000       0x50 build/obj/chmsg.o
 .debug_info    0x00000000      0x71a build/obj/chmsg.o
 .debug_abbrev  0x00000000      0x174 build/obj/chmsg.o
 .debug_loc     0x00000000       0xc4 build/obj/chmsg.o
 .debug_aranges
                0x00000000       0x40 build/obj/chmsg.o
 .debug_ranges  0x00000000       0x30 build/obj/chmsg.o
 .debug_line    0x00000000      0x1f0 build/obj/chmsg.o
 .debug_str     0x00000000      0x32e build/obj/chmsg.o
 .comment       0x00000000       0x71 build/obj/chmsg.o
 .ARM.attributes
                0x00000000       0x39 build/obj/chmsg.o
 .debug_frame   0x00000000       0x8c build/obj/chmsg.o
 .text          0x00000000        0x0 build/obj/chmboxes.o
 .data          0x00000000        0x0 build/obj/chmboxes.o
 .bss           0x00000000        0x0 build/obj/chmboxes.o
 .text.chMBReset
                0x00000000       0x80 build/obj/chmboxes.o
 .text.chMBPost
                0x00000000       0x40 build/obj/chmboxes.o
 .text.chMBPostS
                0x00000000       0x80 build/obj/chmboxes.o
 .text.chMBPostAhead
                0x00000000       0x40 build/obj/chmboxes.o
 .text.chMBPostAheadS
                0x00000000       0x80 build/obj/chmboxes.o
 .text.chMBPostAheadI
                0x00000000       0x80 build/obj/chmboxes.o
 .text.chMBFetchI
                0x00000000       0x80 build/obj/chmboxes.o
 .text          0x00000000        0x0 build/obj/chqueues.o
 .data          0x00000000        0x0 build/obj/chqueues.o
 .bss           0x00000000        0x0 build/obj/chqueues.o
 .text          0x00000000        0x0 build/obj/chmemcore.o
 .data          0x00000000        0x0 build/obj/chmemcore.o
 .bss           0x00000000        0x0 build/obj/chmemcore.o
 .text.chCoreStatus
                0x00000000       0x20 build/obj/chmemcore.o
 .text          0x00000000        0x0 build/obj/chheap.o
 .data          0x00000000        0x0 build/obj/chheap.o
 .bss           0x00000000        0x0 build/obj/chheap.o
 .text.chHeapInit
                0x00000000       0x70 build/obj/chheap.o
 .text.chHeapAlloc
                0x00000000      0x100 build/obj/chheap.o
 .text.chHeapStatus
                0x00000000       0x80 build/obj/chheap.o
 .text          0x00000000        0x0 build/obj/chmempools.o
 .data          0x00000000        0x0 build/obj/chmempools.o
 .bss           0x00000000        0x0 build/obj/chmempools.o
 .text.chPoolInit
                0x00000000       0x40 build/obj/chmempools.o
 .text.chPoolLoadArray
                0x00000000       0x50 build/obj/chmempools.o
 .text.chPoolAllocI
                0x00000000       0x60 build/obj/chmempools.o
 .text.chPoolAlloc
                0x00000000       0x30 build/obj/chmempools.o
 .text          0x00000000        0x0 build/obj/hal.o
 .data          0x00000000        0x0 build/obj/hal.o
 .bss           0x00000000        0x0 build/obj/hal.o
 .text.halIsCounterWithin
                0x00000000       0x70 build/obj/hal.o
 .text.halPolledDelay
                0x00000000       0x30 build/obj/hal.o
 .text          0x00000000        0x0 build/obj/adc.o
 .data          0x00000000        0x0 build/obj/adc.o
 .bss           0x00000000        0x0 build/obj/adc.o
 .text.adcStartConversion
                0x00000000       0x40 build/obj/adc.o
 .text.adcStopConversionI
                0x00000000       0x90 build/obj/adc.o
 .text.adcConvert
                0x00000000       0x70 build/obj/adc.o
 .text.adcAcquireBus
                0x00000000       0x30 build/obj/adc.o
 .text.adcReleaseBus
                0x00000000       0x20 build/obj/adc.o
 .text          0x00000000        0x0 build/obj/can.o
 .data          0x00000000        0x0 build/obj/can.o
 .bss           0x00000000        0x0 build/obj/can.o
 .debug_info    0x00000000       0x97 build/obj/can.o
 .debug_abbrev  0x00000000       0x4b build/obj/can.o
 .debug_aranges
                0x00000000       0x18 build/obj/can.o
 .debug_line    0x00000000       0xe6 build/obj/can.o
 .debug_str     0x00000000      0x136 build/obj/can.o
 .comment       0x00000000       0x71 build/obj/can.o
 .ARM.attributes
                0x00000000       0x39 build/obj/can.o
 .text          0x00000000        0x0 build/obj/dac.o
 .data          0x00000000        0x0 build/obj/dac.o
 .bss           0x00000000        0x0 build/obj/dac.o
 .debug_info    0x00000000       0x97 build/obj/dac.o
 .debug_abbrev  0x00000000       0x4b build/obj/dac.o
 .debug_aranges
                0x00000000       0x18 build/obj/dac.o
 .debug_line    0x00000000       0xe6 build/obj/dac.o
 .debug_str     0x00000000      0x136 build/obj/dac.o
 .comment       0x00000000       0x71 build/obj/dac.o
 .ARM.attributes
                0x00000000       0x39 build/obj/dac.o
 .text          0x00000000        0x0 build/obj/ext.o
 .data          0x00000000        0x0 build/obj/ext.o
 .bss           0x00000000        0x0 build/obj/ext.o
 .text.extChannelEnable
                0x00000000       0x70 build/obj/ext.o
 .text.extChannelDisable
                0x00000000       0x70 build/obj/ext.o
 .text.extSetChannelModeI
                0x00000000       0x70 build/obj/ext.o
 .text          0x00000000        0x0 build/obj/gpt.o
 .data          0x00000000        0x0 build/obj/gpt.o
 .bss           0x00000000        0x0 build/obj/gpt.o
 .text.gptChangeInterval
                0x00000000       0x60 build/obj/gpt.o
 .text.gptStartContinuous
                0x00000000       0x30 build/obj/gpt.o
 .text.gptStartContinuousI
                0x00000000       0x50 build/obj/gpt.o
 .text.gptStartOneShot
                0x00000000       0x30 build/obj/gpt.o
 .text.gptStopTimer
                0x00000000       0x30 build/obj/gpt.o
 .text.gptStopTimerI
                0x00000000       0x60 build/obj/gpt.o
 .text          0x00000000        0x0 build/obj/i2c.o
 .data          0x00000000        0x0 build/obj/i2c.o
 .bss           0x00000000        0x0 build/obj/i2c.o
 .text.i2cStop  0x00000000       0x70 build/obj/i2c.o
 .text.i2cMasterReceiveTimeout
                0x00000000       0xb0 build/obj/i2c.o
 .text          0x00000000        0x0 build/obj/icu.o
 .data          0x00000000        0x0 build/obj/icu.o
 .bss           0x00000000        0x0 build/obj/icu.o
 .rodata        0x00000000       0x80 build/obj/icu.o
 .text.icuStart
                0x00000000       0x70 build/obj/icu.o
 .text.icuStop  0x00000000       0x60 build/obj/icu.o
 .text.icuEnable
                0x00000000       0x60 build/obj/icu.o
 .text.icuDisable
                0x00000000       0x70 build/obj/icu.o
 .text          0x00000000        0x0 build/obj/mac.o
 .data          0x00000000        0x0 build/obj/mac.o
 .bss           0x00000000        0x0 build/obj/mac.o
 .debug_info    0x00000000       0x97 build/obj/mac.o
 .debug_abbrev  0x00000000       0x4b build/obj/mac.o
 .debug_aranges
                0x00000000       0x18 build/obj/mac.o
 .debug_line    0x00000000       0xe6 build/obj/mac.o
 .debug_str     0x00000000      0x136 build/obj/mac.o
 .comment       0x00000000       0x71 build/obj/mac.o
 .ARM.attributes
                0x00000000       0x39 build/obj/mac.o
 .text          0x00000000        0x0 build/obj/mmc_spi.o
 .data          0x00000000        0x0 build/obj/mmc_spi.o
 .bss           0x00000000        0x0 build/obj/mmc_spi.o
 .debug_info    0x00000000       0x97 build/obj/mmc_spi.o
 .debug_abbrev  0x00000000       0x4b build/obj/mmc_spi.o
 .debug_aranges
                0x00000000       0x18 build/obj/mmc_spi.o
 .debug_line    0x00000000       0xe6 build/obj/mmc_spi.o
 .debug_str     0x00000000      0x13a build/obj/mmc_spi.o
 .comment       0x00000000       0x71 build/obj/mmc_spi.o
 .ARM.attributes
                0x00000000       0x39 build/obj/mmc_spi.o
 .text          0x00000000        0x0 build/obj/mmcsd.o
 .data          0x00000000        0x0 build/obj/mmcsd.o
 .bss           0x00000000        0x0 build/obj/mmcsd.o
 .text          0x00000000        0x0 build/obj/pal.o
 .data          0x00000000        0x0 build/obj/pal.o
 .bss           0x00000000        0x0 build/obj/pal.o
 .rodata        0x00000000       0x34 build/obj/pal.o
 .text.palReadBus
                0x00000000       0x40 build/obj/pal.o
 .text.palWriteBus
                0x00000000       0x60 build/obj/pal.o
 .text.palSetBusMode
                0x00000000       0x40 build/obj/pal.o
 .debug_info    0x00000000      0x2b4 build/obj/pal.o
 .debug_abbrev  0x00000000       0xf3 build/obj/pal.o
 .debug_loc     0x00000000       0x84 build/obj/pal.o
 .debug_aranges
                0x00000000       0x30 build/obj/pal.o
 .debug_ranges  0x00000000       0x20 build/obj/pal.o
 .debug_line    0x00000000      0x1c5 build/obj/pal.o
 .debug_str     0x00000000      0x200 build/obj/pal.o
 .comment       0x00000000       0x71 build/obj/pal.o
 .ARM.attributes
                0x00000000       0x39 build/obj/pal.o
 .debug_frame   0x00000000       0x64 build/obj/pal.o
 .text          0x00000000        0x0 build/obj/pwm.o
 .data          0x00000000        0x0 build/obj/pwm.o
 .bss           0x00000000        0x0 build/obj/pwm.o
 .debug_info    0x00000000       0x97 build/obj/pwm.o
 .debug_abbrev  0x00000000       0x4b build/obj/pwm.o
 .debug_aranges
                0x00000000       0x18 build/obj/pwm.o
 .debug_line    0x00000000       0xe6 build/obj/pwm.o
 .debug_str     0x00000000      0x136 build/obj/pwm.o
 .comment       0x00000000       0x71 build/obj/pwm.o
 .ARM.attributes
                0x00000000       0x39 build/obj/pwm.o
 .text          0x00000000        0x0 build/obj/rtc.o
 .data          0x00000000        0x0 build/obj/rtc.o
 .bss           0x00000000        0x0 build/obj/rtc.o
 .text.rtcSetAlarm
                0x00000000       0x50 build/obj/rtc.o
 .text.rtcGetAlarm
                0x00000000       0x50 build/obj/rtc.o
 .text          0x00000000        0x0 build/obj/sdc.o
 .data          0x00000000        0x0 build/obj/sdc.o
 .bss           0x00000000        0x0 build/obj/sdc.o
 .text.sdcGetAndClearErrors
                0x00000000       0x60 build/obj/sdc.o
 .text.sdcErase
                0x00000000       0xf0 build/obj/sdc.o
 .text          0x00000000        0x0 build/obj/serial.o
 .data          0x00000000        0x0 build/obj/serial.o
 .bss           0x00000000        0x0 build/obj/serial.o
 .text.sdRequestDataI
                0x00000000       0x50 build/obj/serial.o
 .text          0x00000000        0x0 build/obj/serial_usb.o
 .data          0x00000000        0x0 build/obj/serial_usb.o
 .bss           0x00000000        0x0 build/obj/serial_usb.o
 .debug_info    0x00000000       0x97 build/obj/serial_usb.o
 .debug_abbrev  0x00000000       0x4b build/obj/serial_usb.o
 .debug_aranges
                0x00000000       0x18 build/obj/serial_usb.o
 .debug_line    0x00000000       0xe6 build/obj/serial_usb.o
 .debug_str     0x00000000      0x13d build/obj/serial_usb.o
 .comment       0x00000000       0x71 build/obj/serial_usb.o
 .ARM.attributes
                0x00000000       0x39 build/obj/serial_usb.o
 .text          0x00000000        0x0 build/obj/spi.o
 .data          0x00000000        0x0 build/obj/spi.o
 .bss           0x00000000        0x0 build/obj/spi.o
 .text.spiStartIgnore
                0x00000000       0x60 build/obj/spi.o
 .text.spiStartExchange
                0x00000000       0x80 build/obj/spi.o
 .text.spiStartSend
                0x00000000       0x70 build/obj/spi.o
 .text.spiStartReceive
                0x00000000       0x70 build/obj/spi.o
 .text.spiIgnore
                0x00000000       0xa0 build/obj/spi.o
 .text.spiExchange
                0x00000000       0xc0 build/obj/spi.o
 .text.spiSend  0x00000000       0xb0 build/obj/spi.o
 .text.spiReceive
                0x00000000       0xb0 build/obj/spi.o
 .text.spiAcquireBus
                0x00000000       0x30 build/obj/spi.o
 .text.spiReleaseBus
                0x00000000       0x20 build/obj/spi.o
 .text          0x00000000        0x0 build/obj/tm.o
 .data          0x00000000        0x0 build/obj/tm.o
 .bss           0x00000000        0x0 build/obj/tm.o
 .debug_info    0x00000000       0x97 build/obj/tm.o
 .debug_abbrev  0x00000000       0x4b build/obj/tm.o
 .debug_aranges
                0x00000000       0x18 build/obj/tm.o
 .debug_line    0x00000000       0xe6 build/obj/tm.o
 .debug_str     0x00000000      0x135 build/obj/tm.o
 .comment       0x00000000       0x71 build/obj/tm.o
 .ARM.attributes
                0x00000000       0x39 build/obj/tm.o
 .text          0x00000000        0x0 build/obj/uart.o
 .data          0x00000000        0x0 build/obj/uart.o
 .bss           0x00000000        0x0 build/obj/uart.o
 .debug_info    0x00000000       0x97 build/obj/uart.o
 .debug_abbrev  0x00000000       0x4b build/obj/uart.o
 .debug_aranges
                0x00000000       0x18 build/obj/uart.o
 .debug_line    0x00000000       0xe6 build/obj/uart.o
 .debug_str     0x00000000      0x137 build/obj/uart.o
 .comment       0x00000000       0x71 build/obj/uart.o
 .ARM.attributes
                0x00000000       0x39 build/obj/uart.o
 .text          0x00000000        0x0 build/obj/usb.o
 .data          0x00000000        0x0 build/obj/usb.o
 .bss           0x00000000        0x0 build/obj/usb.o
 .debug_info    0x00000000       0x97 build/obj/usb.o
 .debug_abbrev  0x00000000       0x4b build/obj/usb.o
 .debug_aranges
                0x00000000       0x18 build/obj/usb.o
 .debug_line    0x00000000       0xe6 build/obj/usb.o
 .debug_str     0x00000000      0x136 build/obj/usb.o
 .comment       0x00000000       0x71 build/obj/usb.o
 .ARM.attributes
                0x00000000       0x39 build/obj/usb.o
 .text          0x00000000        0x0 build/obj/stm32_dma.o
 .data          0x00000000        0x0 build/obj/stm32_dma.o
 .bss           0x00000000        0x0 build/obj/stm32_dma.o
 .text          0x00000000        0x0 build/obj/hal_lld.o
 .data          0x00000000        0x0 build/obj/hal_lld.o
 .bss           0x00000000        0x0 build/obj/hal_lld.o
 .text          0x00000000        0x0 build/obj/adc_lld.o
 .data          0x00000000        0x0 build/obj/adc_lld.o
 .bss           0x00000000        0x0 build/obj/adc_lld.o
 .text.adcSTM32DisableTSVREFE
                0x00000000       0x20 build/obj/adc_lld.o
 .text.adcSTM32DisableVBATE
                0x00000000       0x20 build/obj/adc_lld.o
 .text          0x00000000        0x0 build/obj/ext_lld_isr.o
 .data          0x00000000        0x0 build/obj/ext_lld_isr.o
 .bss           0x00000000        0x0 build/obj/ext_lld_isr.o
 .text.TAMPER_STAMP_IRQHandler
                0x00000000       0x40 build/obj/ext_lld_isr.o
 .text          0x00000000        0x0 build/obj/can_lld.o
 .data          0x00000000        0x0 build/obj/can_lld.o
 .bss           0x00000000        0x0 build/obj/can_lld.o
 .debug_info    0x00000000       0x97 build/obj/can_lld.o
 .debug_abbrev  0x00000000       0x4b build/obj/can_lld.o
 .debug_aranges
                0x00000000       0x18 build/obj/can_lld.o
 .debug_line    0x00000000       0xe6 build/obj/can_lld.o
 .debug_str     0x00000000      0x146 build/obj/can_lld.o
 .comment       0x00000000       0x71 build/obj/can_lld.o
 .ARM.attributes
                0x00000000       0x39 build/obj/can_lld.o
 .text          0x00000000        0x0 build/obj/ext_lld.o
 .data          0x00000000        0x0 build/obj/ext_lld.o
 .bss           0x00000000        0x0 build/obj/ext_lld.o
 .text          0x00000000        0x0 build/obj/gpt_lld.o
 .data          0x00000000        0x0 build/obj/gpt_lld.o
 .bss           0x00000000        0x0 build/obj/gpt_lld.o
 .text          0x00000000        0x0 build/obj/icu_lld.o
 .data          0x00000000        0x0 build/obj/icu_lld.o
 .bss           0x00000000        0x0 build/obj/icu_lld.o
 .rodata        0x00000000       0x14 build/obj/icu_lld.o
 .text.icu_lld_start
                0x00000000      0x1e0 build/obj/icu_lld.o
 .text.icu_lld_stop
                0x00000000       0x70 build/obj/icu_lld.o
 .text.icu_lld_enable
                0x00000000       0xc0 build/obj/icu_lld.o
 .text.icu_lld_disable
                0x00000000       0x30 build/obj/icu_lld.o
 .text          0x00000000        0x0 build/obj/mac_lld.o
 .data          0x00000000        0x0 build/obj/mac_lld.o
 .bss           0x00000000        0x0 build/obj/mac_lld.o
 .debug_info    0x00000000       0x97 build/obj/mac_lld.o
 .debug_abbrev  0x00000000       0x4b build/obj/mac_lld.o
 .debug_aranges
                0x00000000       0x18 build/obj/mac_lld.o
 .debug_line    0x00000000       0xe6 build/obj/mac_lld.o
 .debug_str     0x00000000      0x146 build/obj/mac_lld.o
 .comment       0x00000000       0x71 build/obj/mac_lld.o
 .ARM.attributes
                0x00000000       0x39 build/obj/mac_lld.o
 .text          0x00000000        0x0 build/obj/pwm_lld.o
 .data          0x00000000        0x0 build/obj/pwm_lld.o
 .bss           0x00000000        0x0 build/obj/pwm_lld.o
 .debug_info    0x00000000       0x97 build/obj/pwm_lld.o
 .debug_abbrev  0x00000000       0x4b build/obj/pwm_lld.o
 .debug_aranges
                0x00000000       0x18 build/obj/pwm_lld.o
 .debug_line    0x00000000       0xe6 build/obj/pwm_lld.o
 .debug_str     0x00000000      0x146 build/obj/pwm_lld.o
 .comment       0x00000000       0x71 build/obj/pwm_lld.o
 .ARM.attributes
                0x00000000       0x39 build/obj/pwm_lld.o
 .text          0x00000000        0x0 build/obj/sdc_lld.o
 .data          0x00000000        0x0 build/obj/sdc_lld.o
 .bss           0x00000000        0x0 build/obj/sdc_lld.o
 .text          0x00000000        0x0 build/obj/pal_lld.o
 .data          0x00000000        0x0 build/obj/pal_lld.o
 .bss           0x00000000        0x0 build/obj/pal_lld.o
 .text._pal_lld_setgroupmode
                0x00000000      0x150 build/obj/pal_lld.o
 .text          0x00000000        0x0 build/obj/i2c_lld.o
 .data          0x00000000        0x0 build/obj/i2c_lld.o
 .bss           0x00000000        0x0 build/obj/i2c_lld.o
 .text.i2c_lld_stop
                0x00000000       0x70 build/obj/i2c_lld.o
 .text.i2c_lld_master_receive_timeout
                0x00000000      0x150 build/obj/i2c_lld.o
 .text          0x00000000        0x0 build/obj/usb_lld.o
 .data          0x00000000        0x0 build/obj/usb_lld.o
 .bss           0x00000000        0x0 build/obj/usb_lld.o
 .debug_info    0x00000000       0x97 build/obj/usb_lld.o
 .debug_abbrev  0x00000000       0x4b build/obj/usb_lld.o
 .debug_aranges
                0x00000000       0x18 build/obj/usb_lld.o
 .debug_line    0x00000000       0xe6 build/obj/usb_lld.o
 .debug_str     0x00000000      0x14c build/obj/usb_lld.o
 .comment       0x00000000       0x71 build/obj/usb_lld.o
 .ARM.attributes
                0x00000000       0x39 build/obj/usb_lld.o
 .text          0x00000000        0x0 build/obj/rtc_lld.o
 .data          0x00000000        0x0 build/obj/rtc_lld.o
 .bss           0x00000000        0x0 build/obj/rtc_lld.o
 .text.rtc_lld_set_alarm
                0x00000000      0x100 build/obj/rtc_lld.o
 .text.rtc_lld_get_alarm
                0x00000000       0x30 build/obj/rtc_lld.o
 .rodata        0x00000000       0x38 build/obj/rtc_lld.o
 .text.rtcSetPeriodicWakeup_v2
                0x00000000       0xb0 build/obj/rtc_lld.o
 .text.rtcGetPeriodicWakeup_v2
                0x00000000       0x40 build/obj/rtc_lld.o
 .text          0x00000000        0x0 build/obj/spi_lld.o
 .data          0x00000000        0x0 build/obj/spi_lld.o
 .bss           0x00000000        0x0 build/obj/spi_lld.o
 .text.spi_lld_ignore
                0x00000000       0x80 build/obj/spi_lld.o
 .text.spi_lld_exchange
                0x00000000       0x80 build/obj/spi_lld.o
 .text          0x00000000        0x0 build/obj/serial_lld.o
 .data          0x00000000        0x0 build/obj/serial_lld.o
 .bss           0x00000000        0x0 build/obj/serial_lld.o
 .text          0x00000000        0x0 build/obj/uart_lld.o
 .data          0x00000000        0x0 build/obj/uart_lld.o
 .bss           0x00000000        0x0 build/obj/uart_lld.o
 .debug_info    0x00000000       0x97 build/obj/uart_lld.o
 .debug_abbrev  0x00000000       0x4b build/obj/uart_lld.o
 .debug_aranges
                0x00000000       0x18 build/obj/uart_lld.o
 .debug_line    0x00000000       0xe6 build/obj/uart_lld.o
 .debug_str     0x00000000      0x14f build/obj/uart_lld.o
 .comment       0x00000000       0x71 build/obj/uart_lld.o
 .ARM.attributes
                0x00000000       0x39 build/obj/uart_lld.o
 .text          0x00000000        0x0 build/obj/board.o
 .data          0x00000000        0x0 build/obj/board.o
 .bss           0x00000000        0x0 build/obj/board.o
 .text          0x00000000        0x0 build/obj/chprintf.o
 .data          0x00000000        0x0 build/obj/chprintf.o
 .bss           0x00000000        0x0 build/obj/chprintf.o
 .text          0x00000000        0x0 build/obj/chrtclib.o
 .data          0x00000000        0x0 build/obj/chrtclib.o
 .bss           0x00000000        0x0 build/obj/chrtclib.o
 .text.rtcGetTimeUnixSec
                0x00000000       0x50 build/obj/chrtclib.o
 .text.rtcSetTimeUnixSec
                0x00000000       0x50 build/obj/chrtclib.o
 .text.rtcGetTimeUnixUsec
                0x00000000       0xb0 build/obj/chrtclib.o
 .text          0x00000000        0x0 build/obj/memstreams.o
 .data          0x00000000        0x0 build/obj/memstreams.o
 .bss           0x00000000        0x0 build/obj/memstreams.o
 .text          0x00000000        0x0 build/obj/fatfs_diskio.o
 .data          0x00000000        0x0 build/obj/fatfs_diskio.o
 .bss           0x00000000        0x0 build/obj/fatfs_diskio.o
 .text          0x00000000        0x0 build/obj/ff.o
 .data          0x00000000        0x0 build/obj/ff.o
 .bss           0x00000000        0x0 build/obj/ff.o
 .text.dir_read
                0x00000000       0xe0 build/obj/ff.o
 .text.dir_remove
                0x00000000       0x60 build/obj/ff.o
 .text.get_fileinfo
                0x00000000      0x160 build/obj/ff.o
 .text.f_read   0x00000000      0x2f0 build/obj/ff.o
 .text.f_lseek  0x00000000      0x2e0 build/obj/ff.o
 .text.f_readdir
                0x00000000       0xb0 build/obj/ff.o
 .text.f_stat   0x00000000       0x70 build/obj/ff.o
 .text.f_truncate
                0x00000000      0x140 build/obj/ff.o
 .text.f_unlink
                0x00000000      0x160 build/obj/ff.o
 .text.f_chmod  0x00000000       0xc0 build/obj/ff.o
 .text.f_utime  0x00000000       0xc0 build/obj/ff.o
 .text.f_rename
                0x00000000      0x1d0 build/obj/ff.o
 .text.f_getlabel
                0x00000000      0x160 build/obj/ff.o
 .text.f_setlabel
                0x00000000      0x2f0 build/obj/ff.o
 .text.f_mkfs   0x00000000      0xb80 build/obj/ff.o
 .rodata.vst.5504
                0x00000000       0x18 build/obj/ff.o
 .rodata.cst.5505
                0x00000000       0x18 build/obj/ff.o
 .text          0x00000000        0x0 build/obj/glcdfont.o
 .data          0x00000000        0x0 build/obj/glcdfont.o
 .bss           0x00000000        0x0 build/obj/glcdfont.o
 .text          0x00000000        0x0 build/obj/kb_adc.o
 .data          0x00000000        0x0 build/obj/kb_adc.o
 .bss           0x00000000        0x0 build/obj/kb_adc.o
 .text          0x00000000        0x0 build/obj/kb_altimeter.o
 .data          0x00000000        0x0 build/obj/kb_altimeter.o
 .bss           0x00000000        0x0 build/obj/kb_altimeter.o
 .text.kuroBoxAltimeterStop
                0x00000000       0x40 build/obj/kb_altimeter.o
 .text          0x00000000        0x0 build/obj/kb_buttons.o
 .data          0x00000000        0x0 build/obj/kb_buttons.o
 .bss           0x00000000        0x0 build/obj/kb_buttons.o
 .text.is_btn_0_pressed
                0x00000000       0x30 build/obj/kb_buttons.o
 .text.is_btn_1_pressed
                0x00000000       0x30 build/obj/kb_buttons.o
 .text          0x00000000        0x0 build/obj/kb_config.o
 .data          0x00000000        0x0 build/obj/kb_config.o
 .bss           0x00000000        0x0 build/obj/kb_config.o
 .text.kbc_read8
                0x00000000       0x30 build/obj/kb_config.o
 .text.kbc_read16
                0x00000000       0x30 build/obj/kb_config.o
 .text.kbc_read32
                0x00000000       0x30 build/obj/kb_config.o
 .text.kbc_write8
                0x00000000       0x30 build/obj/kb_config.o
 .text.kbc_write16
                0x00000000       0x30 build/obj/kb_config.o
 .text.kbc_write32
                0x00000000       0x20 build/obj/kb_config.o
 .text          0x00000000        0x0 build/obj/kb_debug.o
 .data          0x00000000        0x0 build/obj/kb_debug.o
 .bss           0x00000000        0x0 build/obj/kb_debug.o
 .text          0x00000000        0x0 build/obj/kb_featureA.o
 .data          0x00000000        0x0 build/obj/kb_featureA.o
 .bss           0x00000000        0x0 build/obj/kb_featureA.o
 .text          0x00000000        0x0 build/obj/kb_gpio.o
 .data          0x00000000        0x0 build/obj/kb_gpio.o
 .bss           0x00000000        0x0 build/obj/kb_gpio.o
 .debug_info    0x00000000       0x97 build/obj/kb_gpio.o
 .debug_abbrev  0x00000000       0x4b build/obj/kb_gpio.o
 .debug_aranges
                0x00000000       0x18 build/obj/kb_gpio.o
 .debug_line    0x00000000       0xe6 build/obj/kb_gpio.o
 .debug_str     0x00000000      0x127 build/obj/kb_gpio.o
 .comment       0x00000000       0x71 build/obj/kb_gpio.o
 .ARM.attributes
                0x00000000       0x39 build/obj/kb_gpio.o
 .text          0x00000000        0x0 build/obj/kb_gps.o
 .data          0x00000000        0x0 build/obj/kb_gps.o
 .bss           0x00000000        0x0 build/obj/kb_gps.o
 .text          0x00000000        0x0 build/obj/kb_menu.o
 .data          0x00000000        0x0 build/obj/kb_menu.o
 .bss           0x00000000        0x0 build/obj/kb_menu.o
 .text          0x00000000        0x0 build/obj/kb_screen.o
 .data          0x00000000        0x0 build/obj/kb_screen.o
 .bss           0x00000000        0x0 build/obj/kb_screen.o
 .text          0x00000000        0x0 build/obj/kb_serial.o
 .data          0x00000000        0x0 build/obj/kb_serial.o
 .bss           0x00000000        0x0 build/obj/kb_serial.o
 .text          0x00000000        0x0 build/obj/kb_time.o
 .data          0x00000000        0x0 build/obj/kb_time.o
 .bss           0x00000000        0x0 build/obj/kb_time.o
 .text          0x00000000        0x0 build/obj/kb_util.o
 .data          0x00000000        0x0 build/obj/kb_util.o
 .bss           0x00000000        0x0 build/obj/kb_util.o
 .text.calc_checksum_8
                0x00000000       0x60 build/obj/kb_util.o
 .text          0x00000000        0x0 build/obj/kb_vectornav.o
 .data          0x00000000        0x0 build/obj/kb_vectornav.o
 .bss           0x00000000        0x0 build/obj/kb_vectornav.o
 .text          0x00000000        0x0 build/obj/kb_writer.o
 .data          0x00000000        0x0 build/obj/kb_writer.o
 .bss           0x00000000        0x0 build/obj/kb_writer.o
 .text          0x00000000        0x0 build/obj/main.o
 .data          0x00000000        0x0 build/obj/main.o
 .bss           0x00000000        0x0 build/obj/main.o
 .text          0x00000000        0x0 build/obj/spiEEPROM.o
 .data          0x00000000        0x0 build/obj/spiEEPROM.o
 .bss           0x00000000        0x0 build/obj/spiEEPROM.o
 .text.spiEepromReadPage
                0x00000000       0xd0 build/obj/spiEEPROM.o
 .text.spiEepromWritePage
                0x00000000       0xd0 build/obj/spiEEPROM.o
 .text.spiEepromEnableWrite
                0x00000000       0x40 build/obj/spiEEPROM.o
 .text.spiEepromDisableWrite
                0x00000000       0x40 build/obj/spiEEPROM.o
 .text.spiEepromReadSR
                0x00000000       0x60 build/obj/spiEEPROM.o
 .text.spiEepromWriteSR
                0x00000000       0x60 build/obj/spiEEPROM.o
 .text          0x00000000        0x0 build/obj/ST7565.o
 .data          0x00000000        0x0 build/obj/ST7565.o
 .bss           0x00000000        0x0 build/obj/ST7565.o
 .text.st7565_clear_display
                0x00000000       0xf0 build/obj/ST7565.o
 .text.st7565_drawrect
                0x00000000      0x110 build/obj/ST7565.o
 .text          0x00000000        0x0 c:/chibistudio/tools/gnu tools arm embedded/4.7 2013q1/bin/../lib/gcc/arm-none-eabi/4.7.3/../../../../arm-none-eabi/lib/armv7e-m\libm.a(lib_a-s_cos.o)
 .data          0x00000000        0x0 c:/chibistudio/tools/gnu tools arm embedded/4.7 2013q1/bin/../lib/gcc/arm-none-eabi/4.7.3/../../../../arm-none-eabi/lib/armv7e-m\libm.a(lib_a-s_cos.o)
 .bss           0x00000000        0x0 c:/chibistudio/tools/gnu tools arm embedded/4.7 2013q1/bin/../lib/gcc/arm-none-eabi/4.7.3/../../../../arm-none-eabi/lib/armv7e-m\libm.a(lib_a-s_cos.o)
 .text          0x00000000        0x0 c:/chibistudio/tools/gnu tools arm embedded/4.7 2013q1/bin/../lib/gcc/arm-none-eabi/4.7.3/../../../../arm-none-eabi/lib/armv7e-m\libm.a(lib_a-s_sin.o)
 .data          0x00000000        0x0 c:/chibistudio/tools/gnu tools arm embedded/4.7 2013q1/bin/../lib/gcc/arm-none-eabi/4.7.3/../../../../arm-none-eabi/lib/armv7e-m\libm.a(lib_a-s_sin.o)
 .bss           0x00000000        0x0 c:/chibistudio/tools/gnu tools arm embedded/4.7 2013q1/bin/../lib/gcc/arm-none-eabi/4.7.3/../../../../arm-none-eabi/lib/armv7e-m\libm.a(lib_a-s_sin.o)
 .text          0x00000000        0x0 c:/chibistudio/tools/gnu tools arm embedded/4.7 2013q1/bin/../lib/gcc/arm-none-eabi/4.7.3/../../../../arm-none-eabi/lib/armv7e-m\libm.a(lib_a-w_atan2.o)
 .data          0x00000000        0x0 c:/chibistudio/tools/gnu tools arm embedded/4.7 2013q1/bin/../lib/gcc/arm-none-eabi/4.7.3/../../../../arm-none-eabi/lib/armv7e-m\libm.a(lib_a-w_atan2.o)
 .bss           0x00000000        0x0 c:/chibistudio/tools/gnu tools arm embedded/4.7 2013q1/bin/../lib/gcc/arm-none-eabi/4.7.3/../../../../arm-none-eabi/lib/armv7e-m\libm.a(lib_a-w_atan2.o)
 .text          0x00000000        0x0 c:/chibistudio/tools/gnu tools arm embedded/4.7 2013q1/bin/../lib/gcc/arm-none-eabi/4.7.3/../../../../arm-none-eabi/lib/armv7e-m\libm.a(lib_a-w_pow.o)
 .data          0x00000000        0x0 c:/chibistudio/tools/gnu tools arm embedded/4.7 2013q1/bin/../lib/gcc/arm-none-eabi/4.7.3/../../../../arm-none-eabi/lib/armv7e-m\libm.a(lib_a-w_pow.o)
 .bss           0x00000000        0x0 c:/chibistudio/tools/gnu tools arm embedded/4.7 2013q1/bin/../lib/gcc/arm-none-eabi/4.7.3/../../../../arm-none-eabi/lib/armv7e-m\libm.a(lib_a-w_pow.o)
 .text          0x00000000        0x0 c:/chibistudio/tools/gnu tools arm embedded/4.7 2013q1/bin/../lib/gcc/arm-none-eabi/4.7.3/../../../../arm-none-eabi/lib/armv7e-m\libm.a(lib_a-w_sqrt.o)
 .data          0x00000000        0x0 c:/chibistudio/tools/gnu tools arm embedded/4.7 2013q1/bin/../lib/gcc/arm-none-eabi/4.7.3/../../../../arm-none-eabi/lib/armv7e-m\libm.a(lib_a-w_sqrt.o)
 .bss           0x00000000        0x0 c:/chibistudio/tools/gnu tools arm embedded/4.7 2013q1/bin/../lib/gcc/arm-none-eabi/4.7.3/../../../../arm-none-eabi/lib/armv7e-m\libm.a(lib_a-w_sqrt.o)
 .text          0x00000000        0x0 c:/chibistudio/tools/gnu tools arm embedded/4.7 2013q1/bin/../lib/gcc/arm-none-eabi/4.7.3/../../../../arm-none-eabi/lib/armv7e-m\libm.a(lib_a-e_atan2.o)
 .data          0x00000000        0x0 c:/chibistudio/tools/gnu tools arm embedded/4.7 2013q1/bin/../lib/gcc/arm-none-eabi/4.7.3/../../../../arm-none-eabi/lib/armv7e-m\libm.a(lib_a-e_atan2.o)
 .bss           0x00000000        0x0 c:/chibistudio/tools/gnu tools arm embedded/4.7 2013q1/bin/../lib/gcc/arm-none-eabi/4.7.3/../../../../arm-none-eabi/lib/armv7e-m\libm.a(lib_a-e_atan2.o)
 .text          0x00000000        0x0 c:/chibistudio/tools/gnu tools arm embedded/4.7 2013q1/bin/../lib/gcc/arm-none-eabi/4.7.3/../../../../arm-none-eabi/lib/armv7e-m\libm.a(lib_a-e_pow.o)
 .data          0x00000000        0x0 c:/chibistudio/tools/gnu tools arm embedded/4.7 2013q1/bin/../lib/gcc/arm-none-eabi/4.7.3/../../../../arm-none-eabi/lib/armv7e-m\libm.a(lib_a-e_pow.o)
 .bss           0x00000000        0x0 c:/chibistudio/tools/gnu tools arm embedded/4.7 2013q1/bin/../lib/gcc/arm-none-eabi/4.7.3/../../../../arm-none-eabi/lib/armv7e-m\libm.a(lib_a-e_pow.o)
 .text          0x00000000        0x0 c:/chibistudio/tools/gnu tools arm embedded/4.7 2013q1/bin/../lib/gcc/arm-none-eabi/4.7.3/../../../../arm-none-eabi/lib/armv7e-m\libm.a(lib_a-e_rem_pio2.o)
 .data          0x00000000        0x0 c:/chibistudio/tools/gnu tools arm embedded/4.7 2013q1/bin/../lib/gcc/arm-none-eabi/4.7.3/../../../../arm-none-eabi/lib/armv7e-m\libm.a(lib_a-e_rem_pio2.o)
 .bss           0x00000000        0x0 c:/chibistudio/tools/gnu tools arm embedded/4.7 2013q1/bin/../lib/gcc/arm-none-eabi/4.7.3/../../../../arm-none-eabi/lib/armv7e-m\libm.a(lib_a-e_rem_pio2.o)
 .text          0x00000000        0x0 c:/chibistudio/tools/gnu tools arm embedded/4.7 2013q1/bin/../lib/gcc/arm-none-eabi/4.7.3/../../../../arm-none-eabi/lib/armv7e-m\libm.a(lib_a-e_sqrt.o)
 .data          0x00000000        0x0 c:/chibistudio/tools/gnu tools arm embedded/4.7 2013q1/bin/../lib/gcc/arm-none-eabi/4.7.3/../../../../arm-none-eabi/lib/armv7e-m\libm.a(lib_a-e_sqrt.o)
 .bss           0x00000000        0x0 c:/chibistudio/tools/gnu tools arm embedded/4.7 2013q1/bin/../lib/gcc/arm-none-eabi/4.7.3/../../../../arm-none-eabi/lib/armv7e-m\libm.a(lib_a-e_sqrt.o)
 .text          0x00000000        0x0 c:/chibistudio/tools/gnu tools arm embedded/4.7 2013q1/bin/../lib/gcc/arm-none-eabi/4.7.3/../../../../arm-none-eabi/lib/armv7e-m\libm.a(lib_a-k_cos.o)
 .data          0x00000000        0x0 c:/chibistudio/tools/gnu tools arm embedded/4.7 2013q1/bin/../lib/gcc/arm-none-eabi/4.7.3/../../../../arm-none-eabi/lib/armv7e-m\libm.a(lib_a-k_cos.o)
 .bss           0x00000000        0x0 c:/chibistudio/tools/gnu tools arm embedded/4.7 2013q1/bin/../lib/gcc/arm-none-eabi/4.7.3/../../../../arm-none-eabi/lib/armv7e-m\libm.a(lib_a-k_cos.o)
 .text          0x00000000        0x0 c:/chibistudio/tools/gnu tools arm embedded/4.7 2013q1/bin/../lib/gcc/arm-none-eabi/4.7.3/../../../../arm-none-eabi/lib/armv7e-m\libm.a(lib_a-k_rem_pio2.o)
 .data          0x00000000        0x0 c:/chibistudio/tools/gnu tools arm embedded/4.7 2013q1/bin/../lib/gcc/arm-none-eabi/4.7.3/../../../../arm-none-eabi/lib/armv7e-m\libm.a(lib_a-k_rem_pio2.o)
 .bss           0x00000000        0x0 c:/chibistudio/tools/gnu tools arm embedded/4.7 2013q1/bin/../lib/gcc/arm-none-eabi/4.7.3/../../../../arm-none-eabi/lib/armv7e-m\libm.a(lib_a-k_rem_pio2.o)
 .text          0x00000000        0x0 c:/chibistudio/tools/gnu tools arm embedded/4.7 2013q1/bin/../lib/gcc/arm-none-eabi/4.7.3/../../../../arm-none-eabi/lib/armv7e-m\libm.a(lib_a-k_sin.o)
 .data          0x00000000        0x0 c:/chibistudio/tools/gnu tools arm embedded/4.7 2013q1/bin/../lib/gcc/arm-none-eabi/4.7.3/../../../../arm-none-eabi/lib/armv7e-m\libm.a(lib_a-k_sin.o)
 .bss           0x00000000        0x0 c:/chibistudio/tools/gnu tools arm embedded/4.7 2013q1/bin/../lib/gcc/arm-none-eabi/4.7.3/../../../../arm-none-eabi/lib/armv7e-m\libm.a(lib_a-k_sin.o)
 .text          0x00000000        0x0 c:/chibistudio/tools/gnu tools arm embedded/4.7 2013q1/bin/../lib/gcc/arm-none-eabi/4.7.3/../../../../arm-none-eabi/lib/armv7e-m\libm.a(lib_a-s_atan.o)
 .data          0x00000000        0x0 c:/chibistudio/tools/gnu tools arm embedded/4.7 2013q1/bin/../lib/gcc/arm-none-eabi/4.7.3/../../../../arm-none-eabi/lib/armv7e-m\libm.a(lib_a-s_atan.o)
 .bss           0x00000000        0x0 c:/chibistudio/tools/gnu tools arm embedded/4.7 2013q1/bin/../lib/gcc/arm-none-eabi/4.7.3/../../../../arm-none-eabi/lib/armv7e-m\libm.a(lib_a-s_atan.o)
 .text          0x00000000        0x0 c:/chibistudio/tools/gnu tools arm embedded/4.7 2013q1/bin/../lib/gcc/arm-none-eabi/4.7.3/../../../../arm-none-eabi/lib/armv7e-m\libm.a(lib_a-s_fabs.o)
 .data          0x00000000        0x0 c:/chibistudio/tools/gnu tools arm embedded/4.7 2013q1/bin/../lib/gcc/arm-none-eabi/4.7.3/../../../../arm-none-eabi/lib/armv7e-m\libm.a(lib_a-s_fabs.o)
 .bss           0x00000000        0x0 c:/chibistudio/tools/gnu tools arm embedded/4.7 2013q1/bin/../lib/gcc/arm-none-eabi/4.7.3/../../../../arm-none-eabi/lib/armv7e-m\libm.a(lib_a-s_fabs.o)
 .text          0x00000000        0x0 c:/chibistudio/tools/gnu tools arm embedded/4.7 2013q1/bin/../lib/gcc/arm-none-eabi/4.7.3/../../../../arm-none-eabi/lib/armv7e-m\libm.a(lib_a-s_finite.o)
 .data          0x00000000        0x0 c:/chibistudio/tools/gnu tools arm embedded/4.7 2013q1/bin/../lib/gcc/arm-none-eabi/4.7.3/../../../../arm-none-eabi/lib/armv7e-m\libm.a(lib_a-s_finite.o)
 .bss           0x00000000        0x0 c:/chibistudio/tools/gnu tools arm embedded/4.7 2013q1/bin/../lib/gcc/arm-none-eabi/4.7.3/../../../../arm-none-eabi/lib/armv7e-m\libm.a(lib_a-s_finite.o)
 .text          0x00000000        0x0 c:/chibistudio/tools/gnu tools arm embedded/4.7 2013q1/bin/../lib/gcc/arm-none-eabi/4.7.3/../../../../arm-none-eabi/lib/armv7e-m\libm.a(lib_a-s_floor.o)
 .data          0x00000000        0x0 c:/chibistudio/tools/gnu tools arm embedded/4.7 2013q1/bin/../lib/gcc/arm-none-eabi/4.7.3/../../../../arm-none-eabi/lib/armv7e-m\libm.a(lib_a-s_floor.o)
 .bss           0x00000000        0x0 c:/chibistudio/tools/gnu tools arm embedded/4.7 2013q1/bin/../lib/gcc/arm-none-eabi/4.7.3/../../../../arm-none-eabi/lib/armv7e-m\libm.a(lib_a-s_floor.o)
 .text          0x00000000        0x0 c:/chibistudio/tools/gnu tools arm embedded/4.7 2013q1/bin/../lib/gcc/arm-none-eabi/4.7.3/../../../../arm-none-eabi/lib/armv7e-m\libm.a(lib_a-s_fpclassify.o)
 .data          0x00000000        0x0 c:/chibistudio/tools/gnu tools arm embedded/4.7 2013q1/bin/../lib/gcc/arm-none-eabi/4.7.3/../../../../arm-none-eabi/lib/armv7e-m\libm.a(lib_a-s_fpclassify.o)
 .bss           0x00000000        0x0 c:/chibistudio/tools/gnu tools arm embedded/4.7 2013q1/bin/../lib/gcc/arm-none-eabi/4.7.3/../../../../arm-none-eabi/lib/armv7e-m\libm.a(lib_a-s_fpclassify.o)
 .text          0x00000000        0x0 c:/chibistudio/tools/gnu tools arm embedded/4.7 2013q1/bin/../lib/gcc/arm-none-eabi/4.7.3/../../../../arm-none-eabi/lib/armv7e-m\libm.a(lib_a-s_lib_ver.o)
 .data          0x00000000        0x0 c:/chibistudio/tools/gnu tools arm embedded/4.7 2013q1/bin/../lib/gcc/arm-none-eabi/4.7.3/../../../../arm-none-eabi/lib/armv7e-m\libm.a(lib_a-s_lib_ver.o)
 .bss           0x00000000        0x0 c:/chibistudio/tools/gnu tools arm embedded/4.7 2013q1/bin/../lib/gcc/arm-none-eabi/4.7.3/../../../../arm-none-eabi/lib/armv7e-m\libm.a(lib_a-s_lib_ver.o)
 .text          0x00000000        0x0 c:/chibistudio/tools/gnu tools arm embedded/4.7 2013q1/bin/../lib/gcc/arm-none-eabi/4.7.3/../../../../arm-none-eabi/lib/armv7e-m\libm.a(lib_a-s_matherr.o)
 .data          0x00000000        0x0 c:/chibistudio/tools/gnu tools arm embedded/4.7 2013q1/bin/../lib/gcc/arm-none-eabi/4.7.3/../../../../arm-none-eabi/lib/armv7e-m\libm.a(lib_a-s_matherr.o)
 .bss           0x00000000        0x0 c:/chibistudio/tools/gnu tools arm embedded/4.7 2013q1/bin/../lib/gcc/arm-none-eabi/4.7.3/../../../../arm-none-eabi/lib/armv7e-m\libm.a(lib_a-s_matherr.o)
 .text          0x00000000        0x0 c:/chibistudio/tools/gnu tools arm embedded/4.7 2013q1/bin/../lib/gcc/arm-none-eabi/4.7.3/../../../../arm-none-eabi/lib/armv7e-m\libm.a(lib_a-s_nan.o)
 .data          0x00000000        0x0 c:/chibistudio/tools/gnu tools arm embedded/4.7 2013q1/bin/../lib/gcc/arm-none-eabi/4.7.3/../../../../arm-none-eabi/lib/armv7e-m\libm.a(lib_a-s_nan.o)
 .bss           0x00000000        0x0 c:/chibistudio/tools/gnu tools arm embedded/4.7 2013q1/bin/../lib/gcc/arm-none-eabi/4.7.3/../../../../arm-none-eabi/lib/armv7e-m\libm.a(lib_a-s_nan.o)
 .text          0x00000000        0x0 c:/chibistudio/tools/gnu tools arm embedded/4.7 2013q1/bin/../lib/gcc/arm-none-eabi/4.7.3/../../../../arm-none-eabi/lib/armv7e-m\libm.a(lib_a-s_rint.o)
 .data          0x00000000        0x0 c:/chibistudio/tools/gnu tools arm embedded/4.7 2013q1/bin/../lib/gcc/arm-none-eabi/4.7.3/../../../../arm-none-eabi/lib/armv7e-m\libm.a(lib_a-s_rint.o)
 .bss           0x00000000        0x0 c:/chibistudio/tools/gnu tools arm embedded/4.7 2013q1/bin/../lib/gcc/arm-none-eabi/4.7.3/../../../../arm-none-eabi/lib/armv7e-m\libm.a(lib_a-s_rint.o)
 .text          0x00000000        0x0 c:/chibistudio/tools/gnu tools arm embedded/4.7 2013q1/bin/../lib/gcc/arm-none-eabi/4.7.3/../../../../arm-none-eabi/lib/armv7e-m\libm.a(lib_a-s_scalbn.o)
 .data          0x00000000        0x0 c:/chibistudio/tools/gnu tools arm embedded/4.7 2013q1/bin/../lib/gcc/arm-none-eabi/4.7.3/../../../../arm-none-eabi/lib/armv7e-m\libm.a(lib_a-s_scalbn.o)
 .bss           0x00000000        0x0 c:/chibistudio/tools/gnu tools arm embedded/4.7 2013q1/bin/../lib/gcc/arm-none-eabi/4.7.3/../../../../arm-none-eabi/lib/armv7e-m\libm.a(lib_a-s_scalbn.o)
 .text          0x00000000        0x0 c:/chibistudio/tools/gnu tools arm embedded/4.7 2013q1/bin/../lib/gcc/arm-none-eabi/4.7.3/../../../../arm-none-eabi/lib/armv7e-m\libm.a(lib_a-s_copysign.o)
 .data          0x00000000        0x0 c:/chibistudio/tools/gnu tools arm embedded/4.7 2013q1/bin/../lib/gcc/arm-none-eabi/4.7.3/../../../../arm-none-eabi/lib/armv7e-m\libm.a(lib_a-s_copysign.o)
 .bss           0x00000000        0x0 c:/chibistudio/tools/gnu tools arm embedded/4.7 2013q1/bin/../lib/gcc/arm-none-eabi/4.7.3/../../../../arm-none-eabi/lib/armv7e-m\libm.a(lib_a-s_copysign.o)
 .data          0x00000000        0x0 c:/chibistudio/tools/gnu tools arm embedded/4.7 2013q1/bin/../lib/gcc/arm-none-eabi/4.7.3/armv7e-m\libgcc.a(_arm_addsubdf3.o)
 .bss           0x00000000        0x0 c:/chibistudio/tools/gnu tools arm embedded/4.7 2013q1/bin/../lib/gcc/arm-none-eabi/4.7.3/armv7e-m\libgcc.a(_arm_addsubdf3.o)
 .data          0x00000000        0x0 c:/chibistudio/tools/gnu tools arm embedded/4.7 2013q1/bin/../lib/gcc/arm-none-eabi/4.7.3/armv7e-m\libgcc.a(_arm_muldivdf3.o)
 .bss           0x00000000        0x0 c:/chibistudio/tools/gnu tools arm embedded/4.7 2013q1/bin/../lib/gcc/arm-none-eabi/4.7.3/armv7e-m\libgcc.a(_arm_muldivdf3.o)
 .data          0x00000000        0x0 c:/chibistudio/tools/gnu tools arm embedded/4.7 2013q1/bin/../lib/gcc/arm-none-eabi/4.7.3/armv7e-m\libgcc.a(_arm_cmpdf2.o)
 .bss           0x00000000        0x0 c:/chibistudio/tools/gnu tools arm embedded/4.7 2013q1/bin/../lib/gcc/arm-none-eabi/4.7.3/armv7e-m\libgcc.a(_arm_cmpdf2.o)
 .data          0x00000000        0x0 c:/chibistudio/tools/gnu tools arm embedded/4.7 2013q1/bin/../lib/gcc/arm-none-eabi/4.7.3/armv7e-m\libgcc.a(_arm_fixdfsi.o)
 .bss           0x00000000        0x0 c:/chibistudio/tools/gnu tools arm embedded/4.7 2013q1/bin/../lib/gcc/arm-none-eabi/4.7.3/armv7e-m\libgcc.a(_arm_fixdfsi.o)
 .data          0x00000000        0x0 c:/chibistudio/tools/gnu tools arm embedded/4.7 2013q1/bin/../lib/gcc/arm-none-eabi/4.7.3/armv7e-m\libgcc.a(_arm_truncdfsf2.o)
 .bss           0x00000000        0x0 c:/chibistudio/tools/gnu tools arm embedded/4.7 2013q1/bin/../lib/gcc/arm-none-eabi/4.7.3/armv7e-m\libgcc.a(_arm_truncdfsf2.o)
 .text          0x00000000        0x0 c:/chibistudio/tools/gnu tools arm embedded/4.7 2013q1/bin/../lib/gcc/arm-none-eabi/4.7.3/../../../../arm-none-eabi/lib/armv7e-m\libc.a(lib_a-errno.o)
 .data          0x00000000        0x0 c:/chibistudio/tools/gnu tools arm embedded/4.7 2013q1/bin/../lib/gcc/arm-none-eabi/4.7.3/../../../../arm-none-eabi/lib/armv7e-m\libc.a(lib_a-errno.o)
 .bss           0x00000000        0x0 c:/chibistudio/tools/gnu tools arm embedded/4.7 2013q1/bin/../lib/gcc/arm-none-eabi/4.7.3/../../../../arm-none-eabi/lib/armv7e-m\libc.a(lib_a-errno.o)
 .text          0x00000000        0x0 c:/chibistudio/tools/gnu tools arm embedded/4.7 2013q1/bin/../lib/gcc/arm-none-eabi/4.7.3/../../../../arm-none-eabi/lib/armv7e-m\libc.a(lib_a-impure.o)
 .data          0x00000000        0x0 c:/chibistudio/tools/gnu tools arm embedded/4.7 2013q1/bin/../lib/gcc/arm-none-eabi/4.7.3/../../../../arm-none-eabi/lib/armv7e-m\libc.a(lib_a-impure.o)
 .bss           0x00000000        0x0 c:/chibistudio/tools/gnu tools arm embedded/4.7 2013q1/bin/../lib/gcc/arm-none-eabi/4.7.3/../../../../arm-none-eabi/lib/armv7e-m\libc.a(lib_a-impure.o)
 .rodata._global_impure_ptr
                0x00000000        0x4 c:/chibistudio/tools/gnu tools arm embedded/4.7 2013q1/bin/../lib/gcc/arm-none-eabi/4.7.3/../../../../arm-none-eabi/lib/armv7e-m\libc.a(lib_a-impure.o)
 .text          0x00000000        0x0 c:/chibistudio/tools/gnu tools arm embedded/4.7 2013q1/bin/../lib/gcc/arm-none-eabi/4.7.3/../../../../arm-none-eabi/lib/armv7e-m\libc.a(lib_a-lcltime_r.o)
 .data          0x00000000        0x0 c:/chibistudio/tools/gnu tools arm embedded/4.7 2013q1/bin/../lib/gcc/arm-none-eabi/4.7.3/../../../../arm-none-eabi/lib/armv7e-m\libc.a(lib_a-lcltime_r.o)
 .bss           0x00000000        0x0 c:/chibistudio/tools/gnu tools arm embedded/4.7 2013q1/bin/../lib/gcc/arm-none-eabi/4.7.3/../../../../arm-none-eabi/lib/armv7e-m\libc.a(lib_a-lcltime_r.o)
 .text.localtime_r
                0x00000000        0x8 c:/chibistudio/tools/gnu tools arm embedded/4.7 2013q1/bin/../lib/gcc/arm-none-eabi/4.7.3/../../../../arm-none-eabi/lib/armv7e-m\libc.a(lib_a-lcltime_r.o)
 .ARM.attributes
                0x00000000       0x2e c:/chibistudio/tools/gnu tools arm embedded/4.7 2013q1/bin/../lib/gcc/arm-none-eabi/4.7.3/../../../../arm-none-eabi/lib/armv7e-m\libc.a(lib_a-lcltime_r.o)
 .debug_frame   0x00000000       0x20 c:/chibistudio/tools/gnu tools arm embedded/4.7 2013q1/bin/../lib/gcc/arm-none-eabi/4.7.3/../../../../arm-none-eabi/lib/armv7e-m\libc.a(lib_a-lcltime_r.o)
 .text          0x00000000        0x0 c:/chibistudio/tools/gnu tools arm embedded/4.7 2013q1/bin/../lib/gcc/arm-none-eabi/4.7.3/../../../../arm-none-eabi/lib/armv7e-m\libc.a(lib_a-memcpy.o)
 .data          0x00000000        0x0 c:/chibistudio/tools/gnu tools arm embedded/4.7 2013q1/bin/../lib/gcc/arm-none-eabi/4.7.3/../../../../arm-none-eabi/lib/armv7e-m\libc.a(lib_a-memcpy.o)
 .bss           0x00000000        0x0 c:/chibistudio/tools/gnu tools arm embedded/4.7 2013q1/bin/../lib/gcc/arm-none-eabi/4.7.3/../../../../arm-none-eabi/lib/armv7e-m\libc.a(lib_a-memcpy.o)
 .text          0x00000000        0x0 c:/chibistudio/tools/gnu tools arm embedded/4.7 2013q1/bin/../lib/gcc/arm-none-eabi/4.7.3/../../../../arm-none-eabi/lib/armv7e-m\libc.a(lib_a-memset.o)
 .data          0x00000000        0x0 c:/chibistudio/tools/gnu tools arm embedded/4.7 2013q1/bin/../lib/gcc/arm-none-eabi/4.7.3/../../../../arm-none-eabi/lib/armv7e-m\libc.a(lib_a-memset.o)
 .bss           0x00000000        0x0 c:/chibistudio/tools/gnu tools arm embedded/4.7 2013q1/bin/../lib/gcc/arm-none-eabi/4.7.3/../../../../arm-none-eabi/lib/armv7e-m\libc.a(lib_a-memset.o)
 .text          0x00000000        0x0 c:/chibistudio/tools/gnu tools arm embedded/4.7 2013q1/bin/../lib/gcc/arm-none-eabi/4.7.3/../../../../arm-none-eabi/lib/armv7e-m\libc.a(lib_a-mktime.o)
 .data          0x00000000        0x0 c:/chibistudio/tools/gnu tools arm embedded/4.7 2013q1/bin/../lib/gcc/arm-none-eabi/4.7.3/../../../../arm-none-eabi/lib/armv7e-m\libc.a(lib_a-mktime.o)
 .bss           0x00000000        0x0 c:/chibistudio/tools/gnu tools arm embedded/4.7 2013q1/bin/../lib/gcc/arm-none-eabi/4.7.3/../../../../arm-none-eabi/lib/armv7e-m\libc.a(lib_a-mktime.o)
 .text.validate_structure
                0x00000000      0x20c c:/chibistudio/tools/gnu tools arm embedded/4.7 2013q1/bin/../lib/gcc/arm-none-eabi/4.7.3/../../../../arm-none-eabi/lib/armv7e-m\libc.a(lib_a-mktime.o)
 .text.mktime   0x00000000      0x36c c:/chibistudio/tools/gnu tools arm embedded/4.7 2013q1/bin/../lib/gcc/arm-none-eabi/4.7.3/../../../../arm-none-eabi/lib/armv7e-m\libc.a(lib_a-mktime.o)
 .rodata._DAYS_BEFORE_MONTH
                0x00000000       0x30 c:/chibistudio/tools/gnu tools arm embedded/4.7 2013q1/bin/../lib/gcc/arm-none-eabi/4.7.3/../../../../arm-none-eabi/lib/armv7e-m\libc.a(lib_a-mktime.o)
 .rodata.DAYS_IN_MONTH
                0x00000000       0x30 c:/chibistudio/tools/gnu tools arm embedded/4.7 2013q1/bin/../lib/gcc/arm-none-eabi/4.7.3/../../../../arm-none-eabi/lib/armv7e-m\libc.a(lib_a-mktime.o)
 .ARM.attributes
                0x00000000       0x2e c:/chibistudio/tools/gnu tools arm embedded/4.7 2013q1/bin/../lib/gcc/arm-none-eabi/4.7.3/../../../../arm-none-eabi/lib/armv7e-m\libc.a(lib_a-mktime.o)
 .debug_frame   0x00000000       0x5c c:/chibistudio/tools/gnu tools arm embedded/4.7 2013q1/bin/../lib/gcc/arm-none-eabi/4.7.3/../../../../arm-none-eabi/lib/armv7e-m\libc.a(lib_a-mktime.o)
 .text          0x00000000        0x0 c:/chibistudio/tools/gnu tools arm embedded/4.7 2013q1/bin/../lib/gcc/arm-none-eabi/4.7.3/../../../../arm-none-eabi/lib/armv7e-m\libc.a(lib_a-mktm_r.o)
 .data          0x00000000        0x0 c:/chibistudio/tools/gnu tools arm embedded/4.7 2013q1/bin/../lib/gcc/arm-none-eabi/4.7.3/../../../../arm-none-eabi/lib/armv7e-m\libc.a(lib_a-mktm_r.o)
 .bss           0x00000000        0x0 c:/chibistudio/tools/gnu tools arm embedded/4.7 2013q1/bin/../lib/gcc/arm-none-eabi/4.7.3/../../../../arm-none-eabi/lib/armv7e-m\libc.a(lib_a-mktm_r.o)
 .text.__tzcalc_limits
                0x00000000      0x1b8 c:/chibistudio/tools/gnu tools arm embedded/4.7 2013q1/bin/../lib/gcc/arm-none-eabi/4.7.3/../../../../arm-none-eabi/lib/armv7e-m\libc.a(lib_a-mktm_r.o)
 .text._mktm_r  0x00000000      0x360 c:/chibistudio/tools/gnu tools arm embedded/4.7 2013q1/bin/../lib/gcc/arm-none-eabi/4.7.3/../../../../arm-none-eabi/lib/armv7e-m\libc.a(lib_a-mktm_r.o)
 .rodata.mon_lengths
                0x00000000       0x60 c:/chibistudio/tools/gnu tools arm embedded/4.7 2013q1/bin/../lib/gcc/arm-none-eabi/4.7.3/../../../../arm-none-eabi/lib/armv7e-m\libc.a(lib_a-mktm_r.o)
 .rodata.year_lengths
                0x00000000        0x8 c:/chibistudio/tools/gnu tools arm embedded/4.7 2013q1/bin/../lib/gcc/arm-none-eabi/4.7.3/../../../../arm-none-eabi/lib/armv7e-m\libc.a(lib_a-mktm_r.o)
 .ARM.attributes
                0x00000000       0x2e c:/chibistudio/tools/gnu tools arm embedded/4.7 2013q1/bin/../lib/gcc/arm-none-eabi/4.7.3/../../../../arm-none-eabi/lib/armv7e-m\libc.a(lib_a-mktm_r.o)
 .debug_frame   0x00000000       0x60 c:/chibistudio/tools/gnu tools arm embedded/4.7 2013q1/bin/../lib/gcc/arm-none-eabi/4.7.3/../../../../arm-none-eabi/lib/armv7e-m\libc.a(lib_a-mktm_r.o)
 .text          0x00000000        0x0 c:/chibistudio/tools/gnu tools arm embedded/4.7 2013q1/bin/../lib/gcc/arm-none-eabi/4.7.3/../../../../arm-none-eabi/lib/armv7e-m\libc.a(lib_a-strcpy.o)
 .data          0x00000000        0x0 c:/chibistudio/tools/gnu tools arm embedded/4.7 2013q1/bin/../lib/gcc/arm-none-eabi/4.7.3/../../../../arm-none-eabi/lib/armv7e-m\libc.a(lib_a-strcpy.o)
 .bss           0x00000000        0x0 c:/chibistudio/tools/gnu tools arm embedded/4.7 2013q1/bin/../lib/gcc/arm-none-eabi/4.7.3/../../../../arm-none-eabi/lib/armv7e-m\libc.a(lib_a-strcpy.o)
 .text          0x00000000        0x0 c:/chibistudio/tools/gnu tools arm embedded/4.7 2013q1/bin/../lib/gcc/arm-none-eabi/4.7.3/../../../../arm-none-eabi/lib/armv7e-m\libc.a(lib_a-tzlock.o)
 .data          0x00000000        0x0 c:/chibistudio/tools/gnu tools arm embedded/4.7 2013q1/bin/../lib/gcc/arm-none-eabi/4.7.3/../../../../arm-none-eabi/lib/armv7e-m\libc.a(lib_a-tzlock.o)
 .bss           0x00000000        0x0 c:/chibistudio/tools/gnu tools arm embedded/4.7 2013q1/bin/../lib/gcc/arm-none-eabi/4.7.3/../../../../arm-none-eabi/lib/armv7e-m\libc.a(lib_a-tzlock.o)
 .text.__tz_lock
                0x00000000        0x4 c:/chibistudio/tools/gnu tools arm embedded/4.7 2013q1/bin/../lib/gcc/arm-none-eabi/4.7.3/../../../../arm-none-eabi/lib/armv7e-m\libc.a(lib_a-tzlock.o)
 .text.__tz_unlock
                0x00000000        0x4 c:/chibistudio/tools/gnu tools arm embedded/4.7 2013q1/bin/../lib/gcc/arm-none-eabi/4.7.3/../../../../arm-none-eabi/lib/armv7e-m\libc.a(lib_a-tzlock.o)
 .ARM.attributes
                0x00000000       0x2e c:/chibistudio/tools/gnu tools arm embedded/4.7 2013q1/bin/../lib/gcc/arm-none-eabi/4.7.3/../../../../arm-none-eabi/lib/armv7e-m\libc.a(lib_a-tzlock.o)
 .debug_frame   0x00000000       0x30 c:/chibistudio/tools/gnu tools arm embedded/4.7 2013q1/bin/../lib/gcc/arm-none-eabi/4.7.3/../../../../arm-none-eabi/lib/armv7e-m\libc.a(lib_a-tzlock.o)
 .text          0x00000000        0x0 c:/chibistudio/tools/gnu tools arm embedded/4.7 2013q1/bin/../lib/gcc/arm-none-eabi/4.7.3/../../../../arm-none-eabi/lib/armv7e-m\libc.a(lib_a-tzvars.o)
 .data          0x00000000        0x0 c:/chibistudio/tools/gnu tools arm embedded/4.7 2013q1/bin/../lib/gcc/arm-none-eabi/4.7.3/../../../../arm-none-eabi/lib/armv7e-m\libc.a(lib_a-tzvars.o)
 .bss           0x00000000        0x0 c:/chibistudio/tools/gnu tools arm embedded/4.7 2013q1/bin/../lib/gcc/arm-none-eabi/4.7.3/../../../../arm-none-eabi/lib/armv7e-m\libc.a(lib_a-tzvars.o)
 .data._tzname  0x00000000        0x8 c:/chibistudio/tools/gnu tools arm embedded/4.7 2013q1/bin/../lib/gcc/arm-none-eabi/4.7.3/../../../../arm-none-eabi/lib/armv7e-m\libc.a(lib_a-tzvars.o)
 .bss._daylight
                0x00000000        0x4 c:/chibistudio/tools/gnu tools arm embedded/4.7 2013q1/bin/../lib/gcc/arm-none-eabi/4.7.3/../../../../arm-none-eabi/lib/armv7e-m\libc.a(lib_a-tzvars.o)
 .bss._timezone
                0x00000000        0x4 c:/chibistudio/tools/gnu tools arm embedded/4.7 2013q1/bin/../lib/gcc/arm-none-eabi/4.7.3/../../../../arm-none-eabi/lib/armv7e-m\libc.a(lib_a-tzvars.o)
 .rodata.str1.4
                0x00000000        0x4 c:/chibistudio/tools/gnu tools arm embedded/4.7 2013q1/bin/../lib/gcc/arm-none-eabi/4.7.3/../../../../arm-none-eabi/lib/armv7e-m\libc.a(lib_a-tzvars.o)
 .ARM.attributes
                0x00000000       0x2e c:/chibistudio/tools/gnu tools arm embedded/4.7 2013q1/bin/../lib/gcc/arm-none-eabi/4.7.3/../../../../arm-none-eabi/lib/armv7e-m\libc.a(lib_a-tzvars.o)
 .text          0x00000000        0x0 c:/chibistudio/tools/gnu tools arm embedded/4.7 2013q1/bin/../lib/gcc/arm-none-eabi/4.7.3/../../../../arm-none-eabi/lib/armv7e-m\libc.a(lib_a-div.o)
 .data          0x00000000        0x0 c:/chibistudio/tools/gnu tools arm embedded/4.7 2013q1/bin/../lib/gcc/arm-none-eabi/4.7.3/../../../../arm-none-eabi/lib/armv7e-m\libc.a(lib_a-div.o)
 .bss           0x00000000        0x0 c:/chibistudio/tools/gnu tools arm embedded/4.7 2013q1/bin/../lib/gcc/arm-none-eabi/4.7.3/../../../../arm-none-eabi/lib/armv7e-m\libc.a(lib_a-div.o)
 .text.div      0x00000000       0x2c c:/chibistudio/tools/gnu tools arm embedded/4.7 2013q1/bin/../lib/gcc/arm-none-eabi/4.7.3/../../../../arm-none-eabi/lib/armv7e-m\libc.a(lib_a-div.o)
 .ARM.attributes
                0x00000000       0x2e c:/chibistudio/tools/gnu tools arm embedded/4.7 2013q1/bin/../lib/gcc/arm-none-eabi/4.7.3/../../../../arm-none-eabi/lib/armv7e-m\libc.a(lib_a-div.o)
 .debug_frame   0x00000000       0x28 c:/chibistudio/tools/gnu tools arm embedded/4.7 2013q1/bin/../lib/gcc/arm-none-eabi/4.7.3/../../../../arm-none-eabi/lib/armv7e-m\libc.a(lib_a-div.o)
 .text          0x00000000        0x0 c:/chibistudio/tools/gnu tools arm embedded/4.7 2013q1/bin/../lib/gcc/arm-none-eabi/4.7.3/../../../../arm-none-eabi/lib/armv7e-m\libc.a(lib_a-gettzinfo.o)
 .data          0x00000000        0x0 c:/chibistudio/tools/gnu tools arm embedded/4.7 2013q1/bin/../lib/gcc/arm-none-eabi/4.7.3/../../../../arm-none-eabi/lib/armv7e-m\libc.a(lib_a-gettzinfo.o)
 .bss           0x00000000        0x0 c:/chibistudio/tools/gnu tools arm embedded/4.7 2013q1/bin/../lib/gcc/arm-none-eabi/4.7.3/../../../../arm-none-eabi/lib/armv7e-m\libc.a(lib_a-gettzinfo.o)
 .text.__gettzinfo
                0x00000000        0xc c:/chibistudio/tools/gnu tools arm embedded/4.7 2013q1/bin/../lib/gcc/arm-none-eabi/4.7.3/../../../../arm-none-eabi/lib/armv7e-m\libc.a(lib_a-gettzinfo.o)
 .data.tzinfo   0x00000000       0x40 c:/chibistudio/tools/gnu tools arm embedded/4.7 2013q1/bin/../lib/gcc/arm-none-eabi/4.7.3/../../../../arm-none-eabi/lib/armv7e-m\libc.a(lib_a-gettzinfo.o)
 .ARM.attributes
                0x00000000       0x2e c:/chibistudio/tools/gnu tools arm embedded/4.7 2013q1/bin/../lib/gcc/arm-none-eabi/4.7.3/../../../../arm-none-eabi/lib/armv7e-m\libc.a(lib_a-gettzinfo.o)
 .debug_frame   0x00000000       0x20 c:/chibistudio/tools/gnu tools arm embedded/4.7 2013q1/bin/../lib/gcc/arm-none-eabi/4.7.3/../../../../arm-none-eabi/lib/armv7e-m\libc.a(lib_a-gettzinfo.o)

Memory Configuration

Name             Origin             Length             Attributes
flash            0x08000000         0x00100000
ram              0x20000000         0x0001c000
ethram           0x2001c000         0x00004000
ccmram           0x10000000         0x00010000
*default*        0x00000000         0xffffffff

Linker script and memory map

LOAD build/obj/kb_debug_asm.o
LOAD build/obj/crt0.o
LOAD build/obj/vectors.o
LOAD build/obj/chcore.o
LOAD build/obj/chcore_v7m.o
LOAD build/obj/nvic.o
LOAD build/obj/chsys.o
LOAD build/obj/chdebug.o
LOAD build/obj/chlists.o
LOAD build/obj/chvt.o
LOAD build/obj/chschd.o
LOAD build/obj/chthreads.o
LOAD build/obj/chdynamic.o
LOAD build/obj/chregistry.o
LOAD build/obj/chsem.o
LOAD build/obj/chmtx.o
LOAD build/obj/chcond.o
LOAD build/obj/chevents.o
LOAD build/obj/chmsg.o
LOAD build/obj/chmboxes.o
LOAD build/obj/chqueues.o
LOAD build/obj/chmemcore.o
LOAD build/obj/chheap.o
LOAD build/obj/chmempools.o
LOAD build/obj/hal.o
LOAD build/obj/adc.o
LOAD build/obj/can.o
LOAD build/obj/dac.o
LOAD build/obj/ext.o
LOAD build/obj/gpt.o
LOAD build/obj/i2c.o
LOAD build/obj/icu.o
LOAD build/obj/mac.o
LOAD build/obj/mmc_spi.o
LOAD build/obj/mmcsd.o
LOAD build/obj/pal.o
LOAD build/obj/pwm.o
LOAD build/obj/rtc.o
LOAD build/obj/sdc.o
LOAD build/obj/serial.o
LOAD build/obj/serial_usb.o
LOAD build/obj/spi.o
LOAD build/obj/tm.o
LOAD build/obj/uart.o
LOAD build/obj/usb.o
LOAD build/obj/stm32_dma.o
LOAD build/obj/hal_lld.o
LOAD build/obj/adc_lld.o
LOAD build/obj/ext_lld_isr.o
LOAD build/obj/can_lld.o
LOAD build/obj/ext_lld.o
LOAD build/obj/gpt_lld.o
LOAD build/obj/icu_lld.o
LOAD build/obj/mac_lld.o
LOAD build/obj/pwm_lld.o
LOAD build/obj/sdc_lld.o
LOAD build/obj/pal_lld.o
LOAD build/obj/i2c_lld.o
LOAD build/obj/usb_lld.o
LOAD build/obj/rtc_lld.o
LOAD build/obj/spi_lld.o
LOAD build/obj/serial_lld.o
LOAD build/obj/uart_lld.o
LOAD build/obj/board.o
LOAD build/obj/chprintf.o
LOAD build/obj/chrtclib.o
LOAD build/obj/memstreams.o
LOAD build/obj/fatfs_diskio.o
LOAD build/obj/ff.o
LOAD build/obj/glcdfont.o
LOAD build/obj/kb_adc.o
LOAD build/obj/kb_altimeter.o
LOAD build/obj/kb_buttons.o
LOAD build/obj/kb_config.o
LOAD build/obj/kb_debug.o
LOAD build/obj/kb_featureA.o
LOAD build/obj/kb_gpio.o
LOAD build/obj/kb_gps.o
LOAD build/obj/kb_menu.o
LOAD build/obj/kb_screen.o
LOAD build/obj/kb_serial.o
LOAD build/obj/kb_time.o
LOAD build/obj/kb_util.o
LOAD build/obj/kb_vectornav.o
LOAD build/obj/kb_writer.o
LOAD build/obj/main.o
LOAD build/obj/spiEEPROM.o
LOAD build/obj/ST7565.o
LOAD c:/chibistudio/tools/gnu tools arm embedded/4.7 2013q1/bin/../lib/gcc/arm-none-eabi/4.7.3/../../../../arm-none-eabi/lib/armv7e-m\libm.a
START GROUP
LOAD c:/chibistudio/tools/gnu tools arm embedded/4.7 2013q1/bin/../lib/gcc/arm-none-eabi/4.7.3/armv7e-m\libgcc.a
LOAD c:/chibistudio/tools/gnu tools arm embedded/4.7 2013q1/bin/../lib/gcc/arm-none-eabi/4.7.3/../../../../arm-none-eabi/lib/armv7e-m\libc.a
END GROUP
                0x00000400                __main_stack_size__ = 0x400
                0x00000400                __process_stack_size__ = 0x400
                0x20000000                __ram_start__ = ORIGIN (ram)
                0x0001c000                __ram_size__ = 0x1c000
                0x2001c000                __ram_end__ = (__ram_start__ + __ram_size__)
                0x00000000                . = 0x0
                0x00000000                _text = .

startup         0x08000000      0x188
 *(vectors)
 vectors        0x08000000      0x188 build/obj/vectors.o
                0x08000000                _vectors

constructors    0x08000188        0x0
                0x08000188                PROVIDE (__init_array_start, .)
 *(SORT(.init_array.*))
 *(.init_array)
                0x08000188                PROVIDE (__init_array_end, .)

destructors     0x08000188        0x0
                0x08000188                PROVIDE (__fini_array_start, .)
 *(.fini_array)
 *(SORT(.fini_array.*))
                0x08000188                PROVIDE (__fini_array_end, .)

.text           0x08000190    0x16f24
 *(.text.startup.*)
 *(.text)
 .text          0x08000190       0x12 build/obj/kb_debug_asm.o
                0x08000190                HardFaultVector
 *fill*         0x080001a2        0xe 00
 .text          0x080001b0      0x370 c:/chibistudio/tools/gnu tools arm embedded/4.7 2013q1/bin/../lib/gcc/arm-none-eabi/4.7.3/armv7e-m\libgcc.a(_arm_addsubdf3.o)
                0x080001b0                __aeabi_drsub
                0x080001b8                __aeabi_dsub
                0x080001b8                __subdf3
                0x080001bc                __aeabi_dadd
                0x080001bc                __adddf3
                0x08000434                __floatunsidf
                0x08000434                __aeabi_ui2d
                0x08000454                __floatsidf
                0x08000454                __aeabi_i2d
                0x08000478                __aeabi_f2d
                0x08000478                __extendsfdf2
                0x080004b4                __floatundidf
                0x080004b4                __aeabi_ul2d
                0x080004c4                __floatdidf
                0x080004c4                __aeabi_l2d
 .text          0x08000520      0x424 c:/chibistudio/tools/gnu tools arm embedded/4.7 2013q1/bin/../lib/gcc/arm-none-eabi/4.7.3/armv7e-m\libgcc.a(_arm_muldivdf3.o)
                0x08000520                __aeabi_dmul
                0x08000520                __muldf3
                0x08000774                __divdf3
                0x08000774                __aeabi_ddiv
 *fill*         0x08000944        0xc 00
 .text          0x08000950      0x110 c:/chibistudio/tools/gnu tools arm embedded/4.7 2013q1/bin/../lib/gcc/arm-none-eabi/4.7.3/armv7e-m\libgcc.a(_arm_cmpdf2.o)
                0x08000950                __gtdf2
                0x08000950                __gedf2
                0x08000958                __ltdf2
                0x08000958                __ledf2
                0x08000960                __nedf2
                0x08000960                __eqdf2
                0x08000960                __cmpdf2
                0x080009dc                __aeabi_cdrcmple
                0x080009ec                __aeabi_cdcmpeq
                0x080009ec                __aeabi_cdcmple
                0x080009fc                __aeabi_dcmpeq
                0x08000a10                __aeabi_dcmplt
                0x08000a24                __aeabi_dcmple
                0x08000a38                __aeabi_dcmpge
                0x08000a4c                __aeabi_dcmpgt
 .text          0x08000a60       0x50 c:/chibistudio/tools/gnu tools arm embedded/4.7 2013q1/bin/../lib/gcc/arm-none-eabi/4.7.3/armv7e-m\libgcc.a(_arm_fixdfsi.o)
                0x08000a60                __aeabi_d2iz
                0x08000a60                __fixdfsi
 .text          0x08000ab0       0xa0 c:/chibistudio/tools/gnu tools arm embedded/4.7 2013q1/bin/../lib/gcc/arm-none-eabi/4.7.3/armv7e-m\libgcc.a(_arm_truncdfsf2.o)
                0x08000ab0                __truncdfsf2
                0x08000ab0                __aeabi_d2f
 *(.text.*)
 .text.__late_init
                0x08000b50       0x10 build/obj/crt0.o
                0x08000b50                __late_init
 .text._default_exit
                0x08000b60       0x10 build/obj/crt0.o
                0x08000b60                _default_exit
 .text.ResetHandler
                0x08000b70      0x130 build/obj/crt0.o
                0x08000b70                ResetHandler
 .text._unhandled_exception
                0x08000ca0       0x10 build/obj/vectors.o
                0x08000ca0                NMIVector
                0x08000ca0                Vector11C
                0x08000ca0                Vector8C
                0x08000ca0                VectorDC
                0x08000ca0                Vector168
                0x08000ca0                Vector110
                0x08000ca0                Vector94
                0x08000ca0                VectorA8
                0x08000ca0                VectorB4
                0x08000ca0                Vector160
                0x08000ca0                VectorEC
                0x08000ca0                UsageFaultVector
                0x08000ca0                DebugMonitorVector
                0x08000ca0                Vector40
                0x08000ca0                VectorF8
                0x08000ca0                Vector108
                0x08000ca0                VectorBC
                0x08000ca0                Vector148
                0x08000ca0                PendSVVector
                0x08000ca0                Vector118
                0x08000ca0                VectorCC
                0x08000ca0                Vector54
                0x08000ca0                Vector98
                0x08000ca0                Vector24
                0x08000ca0                Vector178
                0x08000ca0                BusFaultVector
                0x08000ca0                VectorD0
                0x08000ca0                Vector140
                0x08000ca0                VectorC0
                0x08000ca0                Vector134
                0x08000ca0                VectorF0
                0x08000ca0                Vector13C
                0x08000ca0                Vector100
                0x08000ca0                MemManageVector
                0x08000ca0                VectorA0
                0x08000ca0                Vector180
                0x08000ca0                VectorB0
                0x08000ca0                Vector90
                0x08000ca0                Vector114
                0x08000ca0                Vector164
                0x08000ca0                Vector1C
                0x08000ca0                Vector17C
                0x08000ca0                Vector48
                0x08000ca0                Vector16C
                0x08000ca0                Vector144
                0x08000ca0                _unhandled_exception
                0x08000ca0                Vector184
                0x08000ca0                Vector10C
                0x08000ca0                Vector14C
                0x08000ca0                Vector50
                0x08000ca0                Vector28
                0x08000ca0                VectorB8
                0x08000ca0                Vector34
                0x08000ca0                Vector20
                0x08000ca0                Vector174
 .text.port_halt
                0x08000cb0       0x10 build/obj/chcore.o
                0x08000cb0                port_halt
 .text.SysTickVector
                0x08000cc0       0x30 build/obj/chcore_v7m.o
                0x08000cc0                SysTickVector
 .text.SVCallVector
                0x08000cf0       0x50 build/obj/chcore_v7m.o
                0x08000cf0                SVCallVector
 .text._port_init
                0x08000d40       0x50 build/obj/chcore_v7m.o
                0x08000d40                _port_init
 .text._port_irq_epilogue
                0x08000d90       0xf0 build/obj/chcore_v7m.o
                0x08000d90                _port_irq_epilogue
 .text._port_switch_from_isr
                0x08000e80       0x10 build/obj/chcore_v7m.o
                0x08000e80                _port_switch_from_isr
 .text._port_switch
                0x08000e90       0x20 build/obj/chcore_v7m.o
                0x08000e90                _port_switch
 .text._port_thread_start
                0x08000eb0       0x20 build/obj/chcore_v7m.o
                0x08000eb0                _port_thread_start
 .text.nvicEnableVector
                0x08000ed0       0xb0 build/obj/nvic.o
                0x08000ed0                nvicEnableVector
 .text.nvicDisableVector
                0x08000f80       0x80 build/obj/nvic.o
                0x08000f80                nvicDisableVector
 .text.nvicSetSystemHandlerPriority
                0x08001000       0x60 build/obj/nvic.o
                0x08001000                nvicSetSystemHandlerPriority
 .text._idle_thread
                0x08001060       0x20 build/obj/chsys.o
                0x08001060                _idle_thread
 .text.chSysInit
                0x08001080       0xb0 build/obj/chsys.o
                0x08001080                chSysInit
 .text.chSysTimerHandlerI
                0x08001130       0xf0 build/obj/chsys.o
                0x08001130                chSysTimerHandlerI
 .text.dbg_check_disable
                0x08001220       0x30 build/obj/chdebug.o
                0x08001220                dbg_check_disable
 .text.dbg_check_enable
                0x08001250       0x30 build/obj/chdebug.o
                0x08001250                dbg_check_enable
 .text.dbg_check_lock
                0x08001280       0x40 build/obj/chdebug.o
                0x08001280                dbg_check_lock
 .text.dbg_check_unlock
                0x080012c0       0x40 build/obj/chdebug.o
                0x080012c0                dbg_check_unlock
 .text.dbg_check_lock_from_isr
                0x08001300       0x40 build/obj/chdebug.o
                0x08001300                dbg_check_lock_from_isr
 .text.dbg_check_unlock_from_isr
                0x08001340       0x40 build/obj/chdebug.o
                0x08001340                dbg_check_unlock_from_isr
 .text.dbg_check_enter_isr
                0x08001380       0x60 build/obj/chdebug.o
                0x08001380                dbg_check_enter_isr
 .text.dbg_check_leave_isr
                0x080013e0       0x60 build/obj/chdebug.o
                0x080013e0                dbg_check_leave_isr
 .text.chDbgCheckClassI
                0x08001440       0x30 build/obj/chdebug.o
                0x08001440                chDbgCheckClassI
 .text.chDbgCheckClassS
                0x08001470       0x30 build/obj/chdebug.o
                0x08001470                chDbgCheckClassS
 .text._trace_init
                0x080014a0       0x20 build/obj/chdebug.o
                0x080014a0                _trace_init
 .text.dbg_trace
                0x080014c0       0xa0 build/obj/chdebug.o
                0x080014c0                dbg_trace
 .text.chDbgPanic
                0x08001560       0x30 build/obj/chdebug.o
                0x08001560                chDbgPanic
 .text._vt_init
                0x08001590       0x50 build/obj/chvt.o
                0x08001590                _vt_init
 .text.chVTSetI
                0x080015e0       0xb0 build/obj/chvt.o
                0x080015e0                chVTSetI
 .text.chVTResetI
                0x08001690       0x80 build/obj/chvt.o
                0x08001690                chVTResetI
 .text.fifo_remove
                0x08001710       0x30 build/obj/chschd.o
 .text.dequeue  0x08001740       0x20 build/obj/chschd.o
 .text._scheduler_init
                0x08001760       0x60 build/obj/chschd.o
                0x08001760                _scheduler_init
 .text.chSchReadyI
                0x080017c0       0x80 build/obj/chschd.o
                0x080017c0                chSchReadyI
 .text.chSchGoSleepS
                0x08001840       0x90 build/obj/chschd.o
                0x08001840                chSchGoSleepS
 .text.wakeup   0x080018d0       0xa0 build/obj/chschd.o
 .text.chSchGoSleepTimeoutS
                0x08001970       0x70 build/obj/chschd.o
                0x08001970                chSchGoSleepTimeoutS
 .text.chSchWakeupS
                0x080019e0       0x90 build/obj/chschd.o
                0x080019e0                chSchWakeupS
 .text.chSchRescheduleS
                0x08001a70       0x30 build/obj/chschd.o
                0x08001a70                chSchRescheduleS
 .text.chSchDoRescheduleBehind
                0x08001aa0       0x80 build/obj/chschd.o
                0x08001aa0                chSchDoRescheduleBehind
 .text.chSchDoRescheduleAhead
                0x08001b20       0xc0 build/obj/chschd.o
                0x08001b20                chSchDoRescheduleAhead
 .text.chSchDoReschedule
                0x08001be0       0x20 build/obj/chschd.o
                0x08001be0                chSchDoReschedule
 .text.list_insert
                0x08001c00       0x20 build/obj/chthreads.o
 .text.list_remove
                0x08001c20       0x20 build/obj/chthreads.o
 .text._thread_init
                0x08001c40       0xc0 build/obj/chthreads.o
                0x08001c40                _thread_init
 .text._thread_memfill
                0x08001d00       0x30 build/obj/chthreads.o
                0x08001d00                _thread_memfill
 .text.chThdCreateI
                0x08001d30       0x80 build/obj/chthreads.o
                0x08001d30                chThdCreateI
 .text.chThdCreateStatic
                0x08001db0       0x80 build/obj/chthreads.o
                0x08001db0                chThdCreateStatic
 .text.chThdTerminate
                0x08001e30       0x40 build/obj/chthreads.o
                0x08001e30                chThdTerminate
 .text.chThdSleep
                0x08001e70       0x40 build/obj/chthreads.o
                0x08001e70                chThdSleep
 .text.chThdSleepUntil
                0x08001eb0       0x50 build/obj/chthreads.o
                0x08001eb0                chThdSleepUntil
 .text.chThdExit
                0x08001f00       0x20 build/obj/chthreads.o
                0x08001f00                chThdExit
 .text.chThdExitS
                0x08001f20       0x80 build/obj/chthreads.o
                0x08001f20                chThdExitS
 .text.chThdWait
                0x08001fa0       0xa0 build/obj/chthreads.o
                0x08001fa0                chThdWait
 .text.chThdRelease
                0x08002040       0xc0 build/obj/chdynamic.o
                0x08002040                chThdRelease
 .text.queue_insert
                0x08002100       0x30 build/obj/chsem.o
 .text.fifo_remove
                0x08002130       0x30 build/obj/chsem.o
 .text.chSemInit
                0x08002160       0x40 build/obj/chsem.o
                0x08002160                chSemInit
 .text.chSemWait
                0x080021a0       0x30 build/obj/chsem.o
                0x080021a0                chSemWait
 .text.chSemWaitS
                0x080021d0       0xb0 build/obj/chsem.o
                0x080021d0                chSemWaitS
 .text.chSemWaitTimeoutS
                0x08002280       0xc0 build/obj/chsem.o
                0x08002280                chSemWaitTimeoutS
 .text.chSemSignal
                0x08002340       0x90 build/obj/chsem.o
                0x08002340                chSemSignal
 .text.chSemSignalI
                0x080023d0       0x80 build/obj/chsem.o
                0x080023d0                chSemSignalI
 .text.prio_insert
                0x08002450       0x50 build/obj/chmtx.o
 .text.fifo_remove
                0x080024a0       0x30 build/obj/chmtx.o
 .text.dequeue  0x080024d0       0x20 build/obj/chmtx.o
 .text.chMtxInit
                0x080024f0       0x40 build/obj/chmtx.o
                0x080024f0                chMtxInit
 .text.chMtxLock
                0x08002530       0x30 build/obj/chmtx.o
                0x08002530                chMtxLock
 .text.chMtxLockS
                0x08002560      0x110 build/obj/chmtx.o
                0x08002560                chMtxLockS
 .text.chMtxUnlock
                0x08002670       0xf0 build/obj/chmtx.o
                0x08002670                chMtxUnlock
 .text.chEvtBroadcastFlagsI
                0x08002760       0x60 build/obj/chevents.o
                0x08002760                chEvtBroadcastFlagsI
 .text.chEvtSignalI
                0x080027c0       0x70 build/obj/chevents.o
                0x080027c0                chEvtSignalI
 .text.chMBInit
                0x08002830       0x70 build/obj/chmboxes.o
                0x08002830                chMBInit
 .text.chMBPostI
                0x080028a0       0x80 build/obj/chmboxes.o
                0x080028a0                chMBPostI
 .text.chMBFetch
                0x08002920       0x40 build/obj/chmboxes.o
                0x08002920                chMBFetch
 .text.chMBFetchS
                0x08002960       0x80 build/obj/chmboxes.o
                0x08002960                chMBFetchS
 .text.queue_insert
                0x080029e0       0x30 build/obj/chqueues.o
 .text.fifo_remove
                0x08002a10       0x30 build/obj/chqueues.o
 .text.qwait    0x08002a40       0x50 build/obj/chqueues.o
 .text.chIQInit
                0x08002a90       0x50 build/obj/chqueues.o
                0x08002a90                chIQInit
 .text.chIQResetI
                0x08002ae0       0x50 build/obj/chqueues.o
                0x08002ae0                chIQResetI
 .text.chIQPutI
                0x08002b30       0xa0 build/obj/chqueues.o
                0x08002b30                chIQPutI
 .text.chIQGetTimeout
                0x08002bd0       0xa0 build/obj/chqueues.o
                0x08002bd0                chIQGetTimeout
 .text.chIQReadTimeout
                0x08002c70       0xe0 build/obj/chqueues.o
                0x08002c70                chIQReadTimeout
 .text.chOQInit
                0x08002d50       0x50 build/obj/chqueues.o
                0x08002d50                chOQInit
 .text.chOQResetI
                0x08002da0       0x60 build/obj/chqueues.o
                0x08002da0                chOQResetI
 .text.chOQPutTimeout
                0x08002e00       0xa0 build/obj/chqueues.o
                0x08002e00                chOQPutTimeout
 .text.chOQGetI
                0x08002ea0       0xa0 build/obj/chqueues.o
                0x08002ea0                chOQGetI
 .text.chOQWriteTimeout
                0x08002f40       0xe0 build/obj/chqueues.o
                0x08002f40                chOQWriteTimeout
 .text._core_init
                0x08003020       0x40 build/obj/chmemcore.o
                0x08003020                _core_init
 .text.chCoreAlloc
                0x08003060       0x30 build/obj/chmemcore.o
                0x08003060                chCoreAlloc
 .text.chCoreAllocI
                0x08003090       0x70 build/obj/chmemcore.o
                0x08003090                chCoreAllocI
 .text._heap_init
                0x08003100       0x40 build/obj/chheap.o
                0x08003100                _heap_init
 .text.chHeapFree
                0x08003140      0x110 build/obj/chheap.o
                0x08003140                chHeapFree
 .text.chPoolFreeI
                0x08003250       0x40 build/obj/chmempools.o
                0x08003250                chPoolFreeI
 .text.chPoolFree
                0x08003290       0x30 build/obj/chmempools.o
                0x08003290                chPoolFree
 .text.halInit  0x080032c0       0x40 build/obj/hal.o
                0x080032c0                halInit
 .text.adcInit  0x08003300       0x10 build/obj/adc.o
                0x08003300                adcInit
 .text.adcObjectInit
                0x08003310       0x50 build/obj/adc.o
                0x08003310                adcObjectInit
 .text.adcStart
                0x08003360       0x70 build/obj/adc.o
                0x08003360                adcStart
 .text.adcStop  0x080033d0       0x60 build/obj/adc.o
                0x080033d0                adcStop
 .text.adcStartConversionI
                0x08003430       0x90 build/obj/adc.o
                0x08003430                adcStartConversionI
 .text.adcStopConversion
                0x080034c0       0x90 build/obj/adc.o
                0x080034c0                adcStopConversion
 .text.extInit  0x08003550       0x10 build/obj/ext.o
                0x08003550                extInit
 .text.extObjectInit
                0x08003560       0x20 build/obj/ext.o
                0x08003560                extObjectInit
 .text.extStart
                0x08003580       0x70 build/obj/ext.o
                0x08003580                extStart
 .text.extStop  0x080035f0       0x60 build/obj/ext.o
                0x080035f0                extStop
 .text.gptInit  0x08003650       0x10 build/obj/gpt.o
                0x08003650                gptInit
 .text.gptObjectInit
                0x08003660       0x20 build/obj/gpt.o
                0x08003660                gptObjectInit
 .text.gptStart
                0x08003680       0x70 build/obj/gpt.o
                0x08003680                gptStart
 .text.gptStop  0x080036f0       0x60 build/obj/gpt.o
                0x080036f0                gptStop
 .text.gptStartOneShotI
                0x08003750       0x50 build/obj/gpt.o
                0x08003750                gptStartOneShotI
 .text.gptPolledDelay
                0x080037a0       0x40 build/obj/gpt.o
                0x080037a0                gptPolledDelay
 .text.i2cInit  0x080037e0       0x10 build/obj/i2c.o
                0x080037e0                i2cInit
 .text.i2cObjectInit
                0x080037f0       0x30 build/obj/i2c.o
                0x080037f0                i2cObjectInit
 .text.i2cStart
                0x08003820       0x80 build/obj/i2c.o
                0x08003820                i2cStart
 .text.i2cGetErrors
                0x080038a0       0x30 build/obj/i2c.o
                0x080038a0                i2cGetErrors
 .text.i2cMasterTransmitTimeout
                0x080038d0       0xd0 build/obj/i2c.o
                0x080038d0                i2cMasterTransmitTimeout
 .text.i2cAcquireBus
                0x080039a0       0x30 build/obj/i2c.o
                0x080039a0                i2cAcquireBus
 .text.i2cReleaseBus
                0x080039d0       0x20 build/obj/i2c.o
                0x080039d0                i2cReleaseBus
 .text.icuInit  0x080039f0       0x10 build/obj/icu.o
                0x080039f0                icuInit
 .text.icuObjectInit
                0x08003a00       0x20 build/obj/icu.o
                0x08003a00                icuObjectInit
 .text.mmcsd_get_slice
                0x08003a20       0xb0 build/obj/mmcsd.o
 .text.mmcsdGetCapacity
                0x08003ad0       0x90 build/obj/mmcsd.o
                0x08003ad0                mmcsdGetCapacity
 .text.rtcInit  0x08003b60       0x10 build/obj/rtc.o
                0x08003b60                rtcInit
 .text.rtcSetTime
                0x08003b70       0x50 build/obj/rtc.o
                0x08003b70                rtcSetTime
 .text.rtcGetTime
                0x08003bc0       0x50 build/obj/rtc.o
                0x08003bc0                rtcGetTime
 .text.rtcGetTimeFat
                0x08003c10       0x30 build/obj/rtc.o
                0x08003c10                rtcGetTimeFat
 .text._sdc_wait_for_transfer_state
                0x08003c40       0x70 build/obj/sdc.o
                0x08003c40                _sdc_wait_for_transfer_state
 .text.sdcInit  0x08003cb0       0x10 build/obj/sdc.o
                0x08003cb0                sdcInit
 .text.sdcObjectInit
                0x08003cc0       0x40 build/obj/sdc.o
                0x08003cc0                sdcObjectInit
 .text.sdcStart
                0x08003d00       0x70 build/obj/sdc.o
                0x08003d00                sdcStart
 .text.sdcStop  0x08003d70       0x60 build/obj/sdc.o
                0x08003d70                sdcStop
 .text.sdcConnect
                0x08003dd0      0x2b0 build/obj/sdc.o
                0x08003dd0                sdcConnect
 .text.sdcDisconnect
                0x08004080       0xb0 build/obj/sdc.o
                0x08004080                sdcDisconnect
 .text.sdcRead  0x08004130       0x90 build/obj/sdc.o
                0x08004130                sdcRead
 .text.sdcWrite
                0x080041c0       0x90 build/obj/sdc.o
                0x080041c0                sdcWrite
 .text.sdcSync  0x08004250       0x50 build/obj/sdc.o
                0x08004250                sdcSync
 .text.sdcGetInfo
                0x080042a0       0x50 build/obj/sdc.o
                0x080042a0                sdcGetInfo
 .text.write    0x080042f0       0x30 build/obj/serial.o
 .text.read     0x08004320       0x30 build/obj/serial.o
 .text.put      0x08004350       0x30 build/obj/serial.o
 .text.get      0x08004380       0x20 build/obj/serial.o
 .text.putt     0x080043a0       0x30 build/obj/serial.o
 .text.gett     0x080043d0       0x20 build/obj/serial.o
 .text.writet   0x080043f0       0x30 build/obj/serial.o
 .text.readt    0x08004420       0x30 build/obj/serial.o
 .text.sdInit   0x08004450       0x10 build/obj/serial.o
                0x08004450                sdInit
 .text.sdObjectInit
                0x08004460       0x70 build/obj/serial.o
                0x08004460                sdObjectInit
 .text.sdStart  0x080044d0       0x70 build/obj/serial.o
                0x080044d0                sdStart
 .text.sdStop   0x08004540       0x80 build/obj/serial.o
                0x08004540                sdStop
 .text.sdIncomingDataI
                0x080045c0       0x70 build/obj/serial.o
                0x080045c0                sdIncomingDataI
 .text.spiInit  0x08004630       0x10 build/obj/spi.o
                0x08004630                spiInit
 .text.spiObjectInit
                0x08004640       0x30 build/obj/spi.o
                0x08004640                spiObjectInit
 .text.spiStart
                0x08004670       0x70 build/obj/spi.o
                0x08004670                spiStart
 .text.spiStop  0x080046e0       0x60 build/obj/spi.o
                0x080046e0                spiStop
 .text.spiSelect
                0x08004740       0x50 build/obj/spi.o
                0x08004740                spiSelect
 .text.spiUnselect
                0x08004790       0x50 build/obj/spi.o
                0x08004790                spiUnselect
 .text.Vector6C
                0x080047e0       0x60 build/obj/stm32_dma.o
                0x080047e0                Vector6C
 .text.Vector70
                0x08004840       0x60 build/obj/stm32_dma.o
                0x08004840                Vector70
 .text.Vector74
                0x080048a0       0x60 build/obj/stm32_dma.o
                0x080048a0                Vector74
 .text.Vector78
                0x08004900       0x60 build/obj/stm32_dma.o
                0x08004900                Vector78
 .text.Vector7C
                0x08004960       0x60 build/obj/stm32_dma.o
                0x08004960                Vector7C
 .text.Vector80
                0x080049c0       0x60 build/obj/stm32_dma.o
                0x080049c0                Vector80
 .text.Vector84
                0x08004a20       0x60 build/obj/stm32_dma.o
                0x08004a20                Vector84
 .text.VectorFC
                0x08004a80       0x60 build/obj/stm32_dma.o
                0x08004a80                VectorFC
 .text.Vector120
                0x08004ae0       0x60 build/obj/stm32_dma.o
                0x08004ae0                Vector120
 .text.Vector124
                0x08004b40       0x60 build/obj/stm32_dma.o
                0x08004b40                Vector124
 .text.Vector128
                0x08004ba0       0x60 build/obj/stm32_dma.o
                0x08004ba0                Vector128
 .text.Vector12C
                0x08004c00       0x60 build/obj/stm32_dma.o
                0x08004c00                Vector12C
 .text.Vector130
                0x08004c60       0x60 build/obj/stm32_dma.o
                0x08004c60                Vector130
 .text.Vector150
                0x08004cc0       0x60 build/obj/stm32_dma.o
                0x08004cc0                Vector150
 .text.Vector154
                0x08004d20       0x60 build/obj/stm32_dma.o
                0x08004d20                Vector154
 .text.Vector158
                0x08004d80       0x60 build/obj/stm32_dma.o
                0x08004d80                Vector158
 .text.dmaInit  0x08004de0       0xa0 build/obj/stm32_dma.o
                0x08004de0                dmaInit
 .text.dmaStreamAllocate
                0x08004e80      0x150 build/obj/stm32_dma.o
                0x08004e80                dmaStreamAllocate
 .text.dmaStreamRelease
                0x08004fd0       0xd0 build/obj/stm32_dma.o
                0x08004fd0                dmaStreamRelease
 .text.hal_lld_backup_domain_init
                0x080050a0       0xd0 build/obj/hal_lld.o
 .text.hal_lld_init
                0x08005170      0x120 build/obj/hal_lld.o
                0x08005170                hal_lld_init
 .text.stm32_clock_init
                0x08005290      0x1f0 build/obj/hal_lld.o
                0x08005290                stm32_clock_init
 .text.adc_lld_serve_rx_interrupt
                0x08005480      0x210 build/obj/adc_lld.o
 .text.Vector88
                0x08005690      0x320 build/obj/adc_lld.o
                0x08005690                Vector88
 .text.adc_lld_init
                0x080059b0       0xd0 build/obj/adc_lld.o
                0x080059b0                adc_lld_init
 .text.adc_lld_start
                0x08005a80      0x190 build/obj/adc_lld.o
                0x08005a80                adc_lld_start
 .text.adc_lld_stop
                0x08005c10       0xb0 build/obj/adc_lld.o
                0x08005c10                adc_lld_stop
 .text.adc_lld_start_conversion
                0x08005cc0      0x100 build/obj/adc_lld.o
                0x08005cc0                adc_lld_start_conversion
 .text.adc_lld_stop_conversion
                0x08005dc0       0x60 build/obj/adc_lld.o
                0x08005dc0                adc_lld_stop_conversion
 .text.adcSTM32EnableTSVREFE
                0x08005e20       0x20 build/obj/adc_lld.o
                0x08005e20                adcSTM32EnableTSVREFE
 .text.adcSTM32EnableVBATE
                0x08005e40       0x20 build/obj/adc_lld.o
                0x08005e40                adcSTM32EnableVBATE
 .text.Vector58
                0x08005e60       0x40 build/obj/ext_lld_isr.o
                0x08005e60                Vector58
 .text.Vector5C
                0x08005ea0       0x40 build/obj/ext_lld_isr.o
                0x08005ea0                Vector5C
 .text.Vector60
                0x08005ee0       0x40 build/obj/ext_lld_isr.o
                0x08005ee0                Vector60
 .text.Vector64
                0x08005f20       0x40 build/obj/ext_lld_isr.o
                0x08005f20                Vector64
 .text.Vector68
                0x08005f60       0x40 build/obj/ext_lld_isr.o
                0x08005f60                Vector68
 .text.Vector9C
                0x08005fa0       0xf0 build/obj/ext_lld_isr.o
                0x08005fa0                Vector9C
 .text.VectorE0
                0x08006090      0x110 build/obj/ext_lld_isr.o
                0x08006090                VectorE0
 .text.Vector44
                0x080061a0       0x40 build/obj/ext_lld_isr.o
                0x080061a0                Vector44
 .text.VectorE4
                0x080061e0       0x40 build/obj/ext_lld_isr.o
                0x080061e0                VectorE4
 .text.VectorE8
                0x08006220       0x40 build/obj/ext_lld_isr.o
                0x08006220                VectorE8
 .text.Vector138
                0x08006260       0x40 build/obj/ext_lld_isr.o
                0x08006260                Vector138
 .text.Vector170
                0x080062a0       0x40 build/obj/ext_lld_isr.o
                0x080062a0                Vector170
 .text.Vector4C
                0x080062e0       0x40 build/obj/ext_lld_isr.o
                0x080062e0                Vector4C
 .text.ext_lld_exti_irq_enable
                0x08006320       0xb0 build/obj/ext_lld_isr.o
                0x08006320                ext_lld_exti_irq_enable
 .text.ext_lld_exti_irq_disable
                0x080063d0       0x80 build/obj/ext_lld_isr.o
                0x080063d0                ext_lld_exti_irq_disable
 .text.ext_lld_init
                0x08006450       0x10 build/obj/ext_lld.o
                0x08006450                ext_lld_init
 .text.ext_lld_start
                0x08006460       0x50 build/obj/ext_lld.o
                0x08006460                ext_lld_start
 .text.ext_lld_stop
                0x080064b0       0x40 build/obj/ext_lld.o
                0x080064b0                ext_lld_stop
 .text.ext_lld_channel_enable
                0x080064f0      0x1d0 build/obj/ext_lld.o
                0x080064f0                ext_lld_channel_enable
 .text.ext_lld_channel_disable
                0x080066c0       0xb0 build/obj/ext_lld.o
                0x080066c0                ext_lld_channel_disable
 .text.gpt_lld_serve_interrupt
                0x08006770       0x40 build/obj/gpt_lld.o
 .text.VectorF4
                0x080067b0       0x20 build/obj/gpt_lld.o
                0x080067b0                VectorF4
 .text.gpt_lld_init
                0x080067d0       0x30 build/obj/gpt_lld.o
                0x080067d0                gpt_lld_init
 .text.gpt_lld_start
                0x08006800       0xe0 build/obj/gpt_lld.o
                0x08006800                gpt_lld_start
 .text.gpt_lld_stop
                0x080068e0       0x60 build/obj/gpt_lld.o
                0x080068e0                gpt_lld_stop
 .text.gpt_lld_start_timer
                0x08006940       0x50 build/obj/gpt_lld.o
                0x08006940                gpt_lld_start_timer
 .text.gpt_lld_stop_timer
                0x08006990       0x30 build/obj/gpt_lld.o
                0x08006990                gpt_lld_stop_timer
 .text.gpt_lld_polled_delay
                0x080069c0       0x50 build/obj/gpt_lld.o
                0x080069c0                gpt_lld_polled_delay
 .text.icu_lld_serve_interrupt
                0x08006a10       0xf0 build/obj/icu_lld.o
 .text.VectorA4
                0x08006b00       0x20 build/obj/icu_lld.o
                0x08006b00                VectorA4
 .text.VectorAC
                0x08006b20       0x20 build/obj/icu_lld.o
                0x08006b20                VectorAC
 .text.icu_lld_init
                0x08006b40       0x30 build/obj/icu_lld.o
                0x08006b40                icu_lld_init
 .text.sdc_lld_prepare_read
                0x08006b70       0x90 build/obj/sdc_lld.o
 .text.sdc_lld_prepare_write
                0x08006c00       0x90 build/obj/sdc_lld.o
 .text.sdc_lld_wait_transaction_end
                0x08006c90      0x100 build/obj/sdc_lld.o
 .text.sdc_lld_collect_errors
                0x08006d90       0xa0 build/obj/sdc_lld.o
 .text.sdc_lld_error_cleanup
                0x08006e30       0xc0 build/obj/sdc_lld.o
 .text.Vector104
                0x08006ef0       0x70 build/obj/sdc_lld.o
                0x08006ef0                Vector104
 .text.sdc_lld_init
                0x08006f60       0x40 build/obj/sdc_lld.o
                0x08006f60                sdc_lld_init
 .text.sdc_lld_start
                0x08006fa0       0xe0 build/obj/sdc_lld.o
                0x08006fa0                sdc_lld_start
 .text.sdc_lld_stop
                0x08007080       0x80 build/obj/sdc_lld.o
                0x08007080                sdc_lld_stop
 .text.sdc_lld_start_clk
                0x08007100       0x50 build/obj/sdc_lld.o
                0x08007100                sdc_lld_start_clk
 .text.sdc_lld_set_data_clk
                0x08007150       0x20 build/obj/sdc_lld.o
                0x08007150                sdc_lld_set_data_clk
 .text.sdc_lld_stop_clk
                0x08007170       0x30 build/obj/sdc_lld.o
                0x08007170                sdc_lld_stop_clk
 .text.sdc_lld_set_bus_mode
                0x080071a0       0x60 build/obj/sdc_lld.o
                0x080071a0                sdc_lld_set_bus_mode
 .text.sdc_lld_send_cmd_none
                0x08007200       0x50 build/obj/sdc_lld.o
                0x08007200                sdc_lld_send_cmd_none
 .text.sdc_lld_send_cmd_short
                0x08007250       0x90 build/obj/sdc_lld.o
                0x08007250                sdc_lld_send_cmd_short
 .text.sdc_lld_send_cmd_short_crc
                0x080072e0       0x90 build/obj/sdc_lld.o
                0x080072e0                sdc_lld_send_cmd_short_crc
 .text.sdc_lld_send_cmd_long_crc
                0x08007370       0xd0 build/obj/sdc_lld.o
                0x08007370                sdc_lld_send_cmd_long_crc
 .text.sdc_lld_read_aligned
                0x08007440      0x110 build/obj/sdc_lld.o
                0x08007440                sdc_lld_read_aligned
 .text.sdc_lld_write_aligned
                0x08007550      0x110 build/obj/sdc_lld.o
                0x08007550                sdc_lld_write_aligned
 .text.sdc_lld_read
                0x08007660       0xa0 build/obj/sdc_lld.o
                0x08007660                sdc_lld_read
 .text.sdc_lld_write
                0x08007700       0xa0 build/obj/sdc_lld.o
                0x08007700                sdc_lld_write
 .text.sdc_lld_sync
                0x080077a0       0x10 build/obj/sdc_lld.o
                0x080077a0                sdc_lld_sync
 .text.initgpio
                0x080077b0       0x50 build/obj/pal_lld.o
 .text._pal_lld_init
                0x08007800      0x100 build/obj/pal_lld.o
                0x08007800                _pal_lld_init
 .text.i2c_lld_abort_operation
                0x08007900       0xb0 build/obj/i2c_lld.o
 .text.i2c_lld_safety_timeout
                0x080079b0       0x50 build/obj/i2c_lld.o
 .text.i2c_lld_set_clock
                0x08007a00      0x260 build/obj/i2c_lld.o
 .text.i2c_lld_set_opmode
                0x08007c60       0x70 build/obj/i2c_lld.o
 .text.i2c_lld_serve_event_interrupt
                0x08007cd0      0x190 build/obj/i2c_lld.o
 .text.i2c_lld_serve_rx_end_irq
                0x08007e60       0xd0 build/obj/i2c_lld.o
 .text.i2c_lld_serve_tx_end_irq
                0x08007f30       0x80 build/obj/i2c_lld.o
 .text.i2c_lld_serve_error_interrupt
                0x08007fb0      0x1a0 build/obj/i2c_lld.o
 .text.VectorC4
                0x08008150       0x20 build/obj/i2c_lld.o
                0x08008150                VectorC4
 .text.VectorC8
                0x08008170       0x60 build/obj/i2c_lld.o
                0x08008170                VectorC8
 .text.i2c_lld_init
                0x080081d0       0x50 build/obj/i2c_lld.o
                0x080081d0                i2c_lld_init
 .text.i2c_lld_start
                0x08008220      0x160 build/obj/i2c_lld.o
                0x08008220                i2c_lld_start
 .text.i2c_lld_master_transmit_timeout
                0x08008380      0x160 build/obj/i2c_lld.o
                0x08008380                i2c_lld_master_transmit_timeout
 .text.rtc_lld_init
                0x080084e0       0xe0 build/obj/rtc_lld.o
                0x080084e0                rtc_lld_init
 .text.rtc_lld_set_time
                0x080085c0       0xc0 build/obj/rtc_lld.o
                0x080085c0                rtc_lld_set_time
 .text.rtc_lld_get_time
                0x08008680       0x90 build/obj/rtc_lld.o
                0x08008680                rtc_lld_get_time
 .text.rtc_lld_get_time_fat
                0x08008710      0x190 build/obj/rtc_lld.o
                0x08008710                rtc_lld_get_time_fat
 .text.spi_lld_serve_rx_interrupt
                0x080088a0      0x110 build/obj/spi_lld.o
 .text.spi_lld_serve_tx_interrupt
                0x080089b0       0x30 build/obj/spi_lld.o
 .text.spi_lld_init
                0x080089e0       0xe0 build/obj/spi_lld.o
                0x080089e0                spi_lld_init
 .text.spi_lld_start
                0x08008ac0      0x1d0 build/obj/spi_lld.o
                0x08008ac0                spi_lld_start
 .text.spi_lld_stop
                0x08008c90       0x90 build/obj/spi_lld.o
                0x08008c90                spi_lld_stop
 .text.spi_lld_select
                0x08008d20       0x20 build/obj/spi_lld.o
                0x08008d20                spi_lld_select
 .text.spi_lld_unselect
                0x08008d40       0x20 build/obj/spi_lld.o
                0x08008d40                spi_lld_unselect
 .text.spi_lld_send
                0x08008d60       0x80 build/obj/spi_lld.o
                0x08008d60                spi_lld_send
 .text.spi_lld_receive
                0x08008de0       0x80 build/obj/spi_lld.o
                0x08008de0                spi_lld_receive
 .text.spi_lld_polled_exchange
                0x08008e60       0x40 build/obj/spi_lld.o
                0x08008e60                spi_lld_polled_exchange
 .text.usart_init
                0x08008ea0       0xb0 build/obj/serial_lld.o
 .text.usart_deinit
                0x08008f50       0x20 build/obj/serial_lld.o
 .text.set_error
                0x08008f70       0x90 build/obj/serial_lld.o
 .text.serve_interrupt
                0x08009000      0x180 build/obj/serial_lld.o
 .text.notify1  0x08009180       0x30 build/obj/serial_lld.o
 .text.notify2  0x080091b0       0x30 build/obj/serial_lld.o
 .text.notify6  0x080091e0       0x30 build/obj/serial_lld.o
 .text.VectorD4
                0x08009210       0x20 build/obj/serial_lld.o
                0x08009210                VectorD4
 .text.VectorD8
                0x08009230       0x20 build/obj/serial_lld.o
                0x08009230                VectorD8
 .text.Vector15C
                0x08009250       0x20 build/obj/serial_lld.o
                0x08009250                Vector15C
 .text.sd_lld_init
                0x08009270       0x90 build/obj/serial_lld.o
                0x08009270                sd_lld_init
 .text.sd_lld_start
                0x08009300       0xd0 build/obj/serial_lld.o
                0x08009300                sd_lld_start
 .text.sd_lld_stop
                0x080093d0       0xb0 build/obj/serial_lld.o
                0x080093d0                sd_lld_stop
 .text.__early_init
                0x08009480       0x10 build/obj/board.o
                0x08009480                __early_init
 .text.sdc_lld_is_card_inserted
                0x08009490       0x30 build/obj/board.o
                0x08009490                sdc_lld_is_card_inserted
 .text.sdc_lld_is_write_protected
                0x080094c0       0x30 build/obj/board.o
                0x080094c0                sdc_lld_is_write_protected
 .text.boardInit
                0x080094f0       0x10 build/obj/board.o
                0x080094f0                boardInit
 .text.long_to_string_with_divisor
                0x08009500       0xc0 build/obj/chprintf.o
 .text.ltoa     0x080095c0       0x20 build/obj/chprintf.o
 .text.ftoa     0x080095e0       0xb0 build/obj/chprintf.o
 .text.chprintf
                0x08009690      0x520 build/obj/chprintf.o
                0x08009690                chprintf
 .text.stm32_rtc_bcd2tm
                0x08009bb0      0x1f0 build/obj/chrtclib.o
 .text.stm32_rtc_tm2bcd
                0x08009da0      0x270 build/obj/chrtclib.o
 .text.rtcGetTimeTm
                0x0800a010       0x40 build/obj/chrtclib.o
                0x0800a010                rtcGetTimeTm
 .text.rtcSetTimeTm
                0x0800a050       0x40 build/obj/chrtclib.o
                0x0800a050                rtcSetTimeTm
 .text.writes   0x0800a090       0x60 build/obj/memstreams.o
 .text.reads    0x0800a0f0       0x60 build/obj/memstreams.o
 .text.put      0x0800a150       0x50 build/obj/memstreams.o
 .text.get      0x0800a1a0       0x40 build/obj/memstreams.o
 .text.msObjectInit
                0x0800a1e0       0x40 build/obj/memstreams.o
                0x0800a1e0                msObjectInit
 .text.disk_initialize
                0x0800a220       0x70 build/obj/fatfs_diskio.o
                0x0800a220                disk_initialize
 .text.disk_status
                0x0800a290       0x70 build/obj/fatfs_diskio.o
                0x0800a290                disk_status
 .text.disk_read
                0x0800a300       0x60 build/obj/fatfs_diskio.o
                0x0800a300                disk_read
 .text.disk_write
                0x0800a360       0x60 build/obj/fatfs_diskio.o
                0x0800a360                disk_write
 .text.disk_ioctl
                0x0800a3c0       0x80 build/obj/fatfs_diskio.o
                0x0800a3c0                disk_ioctl
 .text.get_fattime
                0x0800a440       0x20 build/obj/fatfs_diskio.o
                0x0800a440                get_fattime
 .text.mem_cpy  0x0800a460       0x50 build/obj/ff.o
 .text.mem_set  0x0800a4b0       0x40 build/obj/ff.o
 .text.mem_cmp  0x0800a4f0       0x70 build/obj/ff.o
 .text.chk_chr  0x0800a560       0x30 build/obj/ff.o
 .text.sync_window
                0x0800a590       0xa0 build/obj/ff.o
 .text.move_window
                0x0800a630       0x60 build/obj/ff.o
 .text.sync_fs  0x0800a690      0x180 build/obj/ff.o
 .text.clust2sect
                0x0800a810       0x40 build/obj/ff.o
                0x0800a810                clust2sect
 .text.get_fat  0x0800a850      0x1a0 build/obj/ff.o
                0x0800a850                get_fat
 .text.put_fat  0x0800a9f0      0x280 build/obj/ff.o
                0x0800a9f0                put_fat
 .text.remove_chain
                0x0800ac70       0xc0 build/obj/ff.o
 .text.create_chain
                0x0800ad30      0x130 build/obj/ff.o
 .text.dir_sdi  0x0800ae60      0x130 build/obj/ff.o
 .text.dir_next
                0x0800af90      0x1f0 build/obj/ff.o
 .text.dir_alloc
                0x0800b180       0xa0 build/obj/ff.o
 .text.ld_clust
                0x0800b220       0x60 build/obj/ff.o
 .text.st_clust
                0x0800b280       0x60 build/obj/ff.o
 .text.dir_find
                0x0800b2e0       0xc0 build/obj/ff.o
 .text.dir_register
                0x0800b3a0       0x80 build/obj/ff.o
 .text.create_name
                0x0800b420      0x200 build/obj/ff.o
 .text.follow_path
                0x0800b620      0x100 build/obj/ff.o
 .text.check_fs
                0x0800b720       0xe0 build/obj/ff.o
 .text.chk_mounted
                0x0800b800      0x630 build/obj/ff.o
 .text.validate
                0x0800be30       0x60 build/obj/ff.o
 .text.f_mount  0x0800be90       0x70 build/obj/ff.o
                0x0800be90                f_mount
 .text.f_open   0x0800bf00      0x2e0 build/obj/ff.o
                0x0800bf00                f_open
 .text.f_write  0x0800c1e0      0x360 build/obj/ff.o
                0x0800c1e0                f_write
 .text.f_sync   0x0800c540      0x190 build/obj/ff.o
                0x0800c540                f_sync
 .text.f_close  0x0800c6d0       0x30 build/obj/ff.o
                0x0800c6d0                f_close
 .text.f_opendir
                0x0800c700       0xe0 build/obj/ff.o
                0x0800c700                f_opendir
 .text.f_getfree
                0x0800c7e0      0x1d0 build/obj/ff.o
                0x0800c7e0                f_getfree
 .text.f_mkdir  0x0800c9b0      0x290 build/obj/ff.o
                0x0800c9b0                f_mkdir
 .text.adc_make_avg
                0x0800cc40       0x60 build/obj/kb_adc.o
                0x0800cc40                adc_make_avg
 .text.adc_cb   0x0800cca0       0x50 build/obj/kb_adc.o
                0x0800cca0                adc_cb
 .text.adc_trigger_cb
                0x0800ccf0       0x60 build/obj/kb_adc.o
                0x0800ccf0                adc_trigger_cb
 .text.kuroBoxADCInit
                0x0800cd50       0x60 build/obj/kb_adc.o
                0x0800cd50                kuroBoxADCInit
 .text.kuroBoxADCStop
                0x0800cdb0       0x60 build/obj/kb_adc.o
                0x0800cdb0                kuroBoxADCStop
 .text.write_reg
                0x0800ce10       0xb0 build/obj/kb_altimeter.o
 .text.read_reg
                0x0800cec0       0x90 build/obj/kb_altimeter.o
 .text.thAltimeter
                0x0800cf50      0x150 build/obj/kb_altimeter.o
 .text.kuroBoxAltimeterInit
                0x0800d0a0       0x40 build/obj/kb_altimeter.o
                0x0800d0a0                kuroBoxAltimeterInit
 .text.on_btn0  0x0800d0e0       0x30 build/obj/kb_buttons.o
 .text.on_btn1  0x0800d110       0x30 build/obj/kb_buttons.o
 .text.kuroBoxButtonsInit
                0x0800d140       0x50 build/obj/kb_buttons.o
                0x0800d140                kuroBoxButtonsInit
 .text.kuroBoxButtonsStop
                0x0800d190       0x10 build/obj/kb_buttons.o
                0x0800d190                kuroBoxButtonsStop
 .text.btn_0_exti_cb
                0x0800d1a0       0x60 build/obj/kb_buttons.o
                0x0800d1a0                btn_0_exti_cb
 .text.btn_1_exti_cb
                0x0800d200       0x60 build/obj/kb_buttons.o
                0x0800d200                btn_1_exti_cb
 .text.kbc_save
                0x0800d260       0xb0 build/obj/kb_config.o
                0x0800d260                kbc_save
 .text.kbc_load
                0x0800d310       0xc0 build/obj/kb_config.o
                0x0800d310                kbc_load
 .text.check_offset
                0x0800d3d0       0x30 build/obj/kb_config.o
 .text.calc_cs  0x0800d400       0x20 build/obj/kb_config.o
 .text.kbc_read
                0x0800d420       0x40 build/obj/kb_config.o
                0x0800d420                kbc_read
 .text.kbc_write
                0x0800d460       0x50 build/obj/kb_config.o
                0x0800d460                kbc_write
 .text.kuroBoxConfigInit
                0x0800d4b0       0x90 build/obj/kb_config.o
                0x0800d4b0                kuroBoxConfigInit
 .text.kuroBoxConfigStop
                0x0800d540       0x10 build/obj/kb_config.o
                0x0800d540                kuroBoxConfigStop
 .text.hard_fault_handler_c
                0x0800d550      0x170 build/obj/kb_debug.o
                0x0800d550                hard_fault_handler_c
 .text.thFeatureA
                0x0800d6c0      0x240 build/obj/kb_featureA.o
 .text.kbfa_getFeature
                0x0800d900       0x10 build/obj/kb_featureA.o
                0x0800d900                kbfa_getFeature
 .text.kbfa_setFeature
                0x0800d910       0x20 build/obj/kb_featureA.o
                0x0800d910                kbfa_setFeature
 .text.kbfa_changeFeature
                0x0800d930       0xb0 build/obj/kb_featureA.o
                0x0800d930                kbfa_changeFeature
 .text.kuroBoxFeatureAInit
                0x0800d9e0       0x40 build/obj/kb_featureA.o
                0x0800d9e0                kuroBoxFeatureAInit
 .text.kuroBoxFeatureAStop
                0x0800da20       0x30 build/obj/kb_featureA.o
                0x0800da20                kuroBoxFeatureAStop
 .text.ecef_to_lla
                0x0800da50      0x340 build/obj/kb_gps.o
                0x0800da50                ecef_to_lla
 .text.parse_and_store_nav_sol
                0x0800dd90       0xf0 build/obj/kb_gps.o
 .text.thGps    0x0800de80      0x110 build/obj/kb_gps.o
 .text.gps_timepulse_exti_cb
                0x0800df90       0x30 build/obj/kb_gps.o
                0x0800df90                gps_timepulse_exti_cb
 .text.kuroBoxGPSInit
                0x0800dfc0       0x50 build/obj/kb_gps.o
                0x0800dfc0                kuroBoxGPSInit
 .text.kuroBoxGPSStop
                0x0800e010       0x40 build/obj/kb_gps.o
                0x0800e010                kuroBoxGPSStop
 .text.kbg_getUbxNavSol
                0x0800e050       0x10 build/obj/kb_gps.o
                0x0800e050                kbg_getUbxNavSol
 .text.mi_exit  0x0800e060       0x20 build/obj/kb_menu.o
 .text.mi_featureA_change
                0x0800e080       0x10 build/obj/kb_menu.o
 .text.mi_featureA_getFeature
                0x0800e090       0x10 build/obj/kb_menu.o
 .text.mi_serial1_pwr
                0x0800e0a0       0x30 build/obj/kb_menu.o
 .text.mi_serial1_baud
                0x0800e0d0       0x20 build/obj/kb_menu.o
 .text.mi_serial1_getbaud
                0x0800e0f0       0x10 build/obj/kb_menu.o
 .text.mi_serial2_pwr
                0x0800e100       0x30 build/obj/kb_menu.o
 .text.mi_serial2_baud
                0x0800e130       0x20 build/obj/kb_menu.o
 .text.mi_serial2_getbaud
                0x0800e150       0x10 build/obj/kb_menu.o
 .text.mi_led3  0x0800e160       0x40 build/obj/kb_menu.o
 .text.mi_lcd_backlight
                0x0800e1a0       0x40 build/obj/kb_menu.o
 .text.mi_time_from_gps
                0x0800e1e0       0xe0 build/obj/kb_menu.o
 .text.mi_time_from_ltc
                0x0800e2c0       0x50 build/obj/kb_menu.o
 .text.mi_standby
                0x0800e310       0x20 build/obj/kb_menu.o
 .text.kbm_display
                0x0800e330      0x260 build/obj/kb_menu.o
                0x0800e330                kbm_display
 .text.kbm_btn0
                0x0800e590       0x30 build/obj/kb_menu.o
                0x0800e590                kbm_btn0
 .text.kbm_btn1
                0x0800e5c0       0x30 build/obj/kb_menu.o
                0x0800e5c0                kbm_btn1
 .text.kbm_btn0_dispatch
                0x0800e5f0       0x80 build/obj/kb_menu.o
 .text.kbm_btn1_dispatch
                0x0800e670       0xf0 build/obj/kb_menu.o
 .text.kuroBoxMenuInit
                0x0800e760       0x40 build/obj/kb_menu.o
                0x0800e760                kuroBoxMenuInit
 .text.kuroBoxMenuStop
                0x0800e7a0       0x10 build/obj/kb_menu.o
                0x0800e7a0                kuroBoxMenuStop
 .text.thScreen
                0x0800e7b0      0x690 build/obj/kb_screen.o
 .text.kuroBoxScreenInit
                0x0800ee40       0x50 build/obj/kb_screen.o
                0x0800ee40                kuroBoxScreenInit
 .text.kuroBoxScreenStop
                0x0800ee90       0x40 build/obj/kb_screen.o
                0x0800ee90                kuroBoxScreenStop
 .text.kbs_setVoltage
                0x0800eed0       0x20 build/obj/kb_screen.o
                0x0800eed0                kbs_setVoltage
 .text.kbs_setTemperature
                0x0800eef0       0x20 build/obj/kb_screen.o
                0x0800eef0                kbs_setTemperature
 .text.kbs_setLTC
                0x0800ef10       0x20 build/obj/kb_screen.o
                0x0800ef10                kbs_setLTC
 .text.kbs_setWriteCount
                0x0800ef30       0x20 build/obj/kb_screen.o
                0x0800ef30                kbs_setWriteCount
 .text.kbs_setWriteErrors
                0x0800ef50       0x20 build/obj/kb_screen.o
                0x0800ef50                kbs_setWriteErrors
 .text.kbs_setSDCFree
                0x0800ef70       0x20 build/obj/kb_screen.o
                0x0800ef70                kbs_setSDCFree
 .text.kbs_setFName
                0x0800ef90       0x20 build/obj/kb_screen.o
                0x0800ef90                kbs_setFName
 .text.kbs_btn0
                0x0800efb0       0x20 build/obj/kb_screen.o
                0x0800efb0                kbs_btn0
 .text.kbs_btn1
                0x0800efd0       0x20 build/obj/kb_screen.o
                0x0800efd0                kbs_btn1
 .text.kbs_PPS  0x0800eff0       0x20 build/obj/kb_screen.o
                0x0800eff0                kbs_PPS
 .text.kbs_setGpsEcef
                0x0800f010       0x30 build/obj/kb_screen.o
                0x0800f010                kbs_setGpsEcef
 .text.kbs_setYPR
                0x0800f040       0x30 build/obj/kb_screen.o
                0x0800f040                kbs_setYPR
 .text.kuroBoxSerialInit
                0x0800f070       0x80 build/obj/kb_serial.o
                0x0800f070                kuroBoxSerialInit
 .text.kuroBoxSerialStop
                0x0800f0f0       0x40 build/obj/kb_serial.o
                0x0800f0f0                kuroBoxSerialStop
 .text.kbse_setPower
                0x0800f130       0x70 build/obj/kb_serial.o
                0x0800f130                kbse_setPower
 .text.kbse_getPower
                0x0800f1a0       0x60 build/obj/kb_serial.o
                0x0800f1a0                kbse_getPower
 .text.kbse_getBaud
                0x0800f200       0x40 build/obj/kb_serial.o
                0x0800f200                kbse_getBaud
 .text.kbse_changeBaud
                0x0800f240      0x130 build/obj/kb_serial.o
                0x0800f240                kbse_changeBaud
 .text.kbse_setBaud
                0x0800f370       0xe0 build/obj/kb_serial.o
                0x0800f370                kbse_setBaud
 .text.frame_to_time
                0x0800f450       0xc0 build/obj/kb_time.o
 .text.ltc_store
                0x0800f510      0x110 build/obj/kb_time.o
 .text.ltc_exti_cb
                0x0800f620       0xc0 build/obj/kb_time.o
                0x0800f620                ltc_exti_cb
 .text.kbt_getLTC
                0x0800f6e0       0x10 build/obj/kb_time.o
                0x0800f6e0                kbt_getLTC
 .text.kuroBoxTimeInit
                0x0800f6f0       0x20 build/obj/kb_time.o
                0x0800f6f0                kuroBoxTimeInit
 .text.kuroBoxTimeStop
                0x0800f710       0x10 build/obj/kb_time.o
                0x0800f710                kuroBoxTimeStop
 .text.calc_checksum_16
                0x0800f720       0x80 build/obj/kb_util.o
                0x0800f720                calc_checksum_16
 .text.vectornav_dispatch_register
                0x0800f7a0       0xb0 build/obj/kb_vectornav.o
                0x0800f7a0                vectornav_dispatch_register
 .text.vectornav_spi_end_cb
                0x0800f850       0xe0 build/obj/kb_vectornav.o
                0x0800f850                vectornav_spi_end_cb
 .text.vectornav_gpt_end_cb
                0x0800f930       0xb0 build/obj/kb_vectornav.o
                0x0800f930                vectornav_gpt_end_cb
 .text.kbv_getYPR
                0x0800f9e0       0x50 build/obj/kb_vectornav.o
                0x0800f9e0                kbv_getYPR
 .text.vn_dr_int_exti_cb
                0x0800fa30       0xc0 build/obj/kb_vectornav.o
                0x0800fa30                vn_dr_int_exti_cb
 .text.kuroBoxVectorNavInit
                0x0800faf0       0xe0 build/obj/kb_vectornav.o
                0x0800faf0                kuroBoxVectorNavInit
 .text.kuroBoxVectorNavStop
                0x0800fbd0       0x30 build/obj/kb_vectornav.o
                0x0800fbd0                kuroBoxVectorNavStop
 .text.kbv_readRegister
                0x0800fc00      0x150 build/obj/kb_vectornav.o
                0x0800fc00                kbv_readRegister
 .text.new_write_buffer_idx_to_fill
                0x0800fd50       0xb0 build/obj/kb_writer.o
 .text.return_write_buffer_idx_after_filling
                0x0800fe00       0x70 build/obj/kb_writer.o
 .text.new_write_buffer_idx_to_write
                0x0800fe70       0x80 build/obj/kb_writer.o
 .text.return_write_buffer_idx_after_writing
                0x0800fef0       0x80 build/obj/kb_writer.o
 .text.flush_write_buffers
                0x0800ff70       0xb0 build/obj/kb_writer.o
 .text.make_dirs
                0x08010020       0x40 build/obj/kb_writer.o
 .text.new_file
                0x08010060      0x120 build/obj/kb_writer.o
 .text.on_insert
                0x08010180      0x260 build/obj/kb_writer.o
 .text.on_remove
                0x080103e0       0x40 build/obj/kb_writer.o
 .text.wait_for_sd
                0x08010420       0xa0 build/obj/kb_writer.o
 .text.sd_card_status
                0x080104c0       0x60 build/obj/kb_writer.o
 .text.writing_run
                0x08010520      0x1b0 build/obj/kb_writer.o
 .text.thWriter
                0x080106d0      0x150 build/obj/kb_writer.o
 .text.thLogger
                0x08010820      0x240 build/obj/kb_writer.o
 .text.kuroBoxWriterInit
                0x08010a60       0xa0 build/obj/kb_writer.o
                0x08010a60                kuroBoxWriterInit
 .text.kuroBoxWriterStop
                0x08010b00       0xa0 build/obj/kb_writer.o
                0x08010b00                kuroBoxWriterStop
 .text.kbw_setLTC
                0x08010ba0       0x30 build/obj/kb_writer.o
                0x08010ba0                kbw_setLTC
 .text.kbw_incPPS
                0x08010bd0       0x20 build/obj/kb_writer.o
                0x08010bd0                kbw_incPPS
 .text.kbw_setGpsNavSol
                0x08010bf0       0x50 build/obj/kb_writer.o
                0x08010bf0                kbw_setGpsNavSol
 .text.kbw_setVNav
                0x08010c40       0x20 build/obj/kb_writer.o
                0x08010c40                kbw_setVNav
 .text.kbw_setAltitude
                0x08010c60       0x30 build/obj/kb_writer.o
                0x08010c60                kbw_setAltitude
 .text.kbw_header_vnav
                0x08010c90       0x40 build/obj/kb_writer.o
                0x08010c90                kbw_header_vnav
 .text.thBlinker
                0x08010cd0       0x50 build/obj/main.o
 .text.kuroBox_panic
                0x08010d20       0x10 build/obj/main.o
                0x08010d20                kuroBox_panic
 .text.kuroBox_standby
                0x08010d30       0x60 build/obj/main.o
 .text.kuroBoxInit
                0x08010d90      0x200 build/obj/main.o
                0x08010d90                kuroBoxInit
 .text.kuroBoxStop
                0x08010f90       0xc0 build/obj/main.o
                0x08010f90                kuroBoxStop
 .text.main     0x08011050       0x50 build/obj/main.o
                0x08011050                main
 .text.spiEepromStart
                0x080110a0       0x20 build/obj/spiEEPROM.o
                0x080110a0                spiEepromStart
 .text.updateBoundingBox
                0x080110c0       0xa0 build/obj/ST7565.o
 .text.st7565Start
                0x08011160      0x180 build/obj/ST7565.o
                0x08011160                st7565Start
 .text.st7565_display
                0x080112e0      0x1d0 build/obj/ST7565.o
                0x080112e0                st7565_display
 .text.st7565_clear
                0x080114b0       0x30 build/obj/ST7565.o
                0x080114b0                st7565_clear
 .text.st7565_drawchar
                0x080114e0       0xb0 build/obj/ST7565.o
                0x080114e0                st7565_drawchar
 .text.st7565_drawstring
                0x08011590       0xc0 build/obj/ST7565.o
                0x08011590                st7565_drawstring
 .text.st7565_setpixel
                0x08011650      0x100 build/obj/ST7565.o
                0x08011650                st7565_setpixel
 .text.st7565_drawline
                0x08011750      0x1d0 build/obj/ST7565.o
                0x08011750                st7565_drawline
 .text.st7565_fillrect
                0x08011920       0xc0 build/obj/ST7565.o
                0x08011920                st7565_fillrect
 .text.cos      0x080119e0       0x90 c:/chibistudio/tools/gnu tools arm embedded/4.7 2013q1/bin/../lib/gcc/arm-none-eabi/4.7.3/../../../../arm-none-eabi/lib/armv7e-m\libm.a(lib_a-s_cos.o)
                0x080119e0                cos
 .text.sin      0x08011a70       0x98 c:/chibistudio/tools/gnu tools arm embedded/4.7 2013q1/bin/../lib/gcc/arm-none-eabi/4.7.3/../../../../arm-none-eabi/lib/armv7e-m\libm.a(lib_a-s_sin.o)
                0x08011a70                sin
 *fill*         0x08011b08        0x8 00
 .text.atan2    0x08011b10        0x4 c:/chibistudio/tools/gnu tools arm embedded/4.7 2013q1/bin/../lib/gcc/arm-none-eabi/4.7.3/../../../../arm-none-eabi/lib/armv7e-m\libm.a(lib_a-w_atan2.o)
                0x08011b10                atan2
 *fill*         0x08011b14        0xc 00
 .text.pow      0x08011b20      0x310 c:/chibistudio/tools/gnu tools arm embedded/4.7 2013q1/bin/../lib/gcc/arm-none-eabi/4.7.3/../../../../arm-none-eabi/lib/armv7e-m\libm.a(lib_a-w_pow.o)
                0x08011b20                pow
 .text.sqrt     0x08011e30       0xa8 c:/chibistudio/tools/gnu tools arm embedded/4.7 2013q1/bin/../lib/gcc/arm-none-eabi/4.7.3/../../../../arm-none-eabi/lib/armv7e-m\libm.a(lib_a-w_sqrt.o)
                0x08011e30                sqrt
 *fill*         0x08011ed8        0x8 00
 .text.__ieee754_atan2
                0x08011ee0      0x218 c:/chibistudio/tools/gnu tools arm embedded/4.7 2013q1/bin/../lib/gcc/arm-none-eabi/4.7.3/../../../../arm-none-eabi/lib/armv7e-m\libm.a(lib_a-e_atan2.o)
                0x08011ee0                __ieee754_atan2
 *fill*         0x080120f8        0x8 00
 .text.__ieee754_pow
                0x08012100      0xb20 c:/chibistudio/tools/gnu tools arm embedded/4.7 2013q1/bin/../lib/gcc/arm-none-eabi/4.7.3/../../../../arm-none-eabi/lib/armv7e-m\libm.a(lib_a-e_pow.o)
                0x08012100                __ieee754_pow
 .text.__ieee754_rem_pio2
                0x08012c20      0x468 c:/chibistudio/tools/gnu tools arm embedded/4.7 2013q1/bin/../lib/gcc/arm-none-eabi/4.7.3/../../../../arm-none-eabi/lib/armv7e-m\libm.a(lib_a-e_rem_pio2.o)
                0x08012c20                __ieee754_rem_pio2
 *fill*         0x08013088        0x8 00
 .text.__ieee754_sqrt
                0x08013090      0x208 c:/chibistudio/tools/gnu tools arm embedded/4.7 2013q1/bin/../lib/gcc/arm-none-eabi/4.7.3/../../../../arm-none-eabi/lib/armv7e-m\libm.a(lib_a-e_sqrt.o)
                0x08013090                __ieee754_sqrt
 *fill*         0x08013298        0x8 00
 .text.__kernel_cos
                0x080132a0      0x258 c:/chibistudio/tools/gnu tools arm embedded/4.7 2013q1/bin/../lib/gcc/arm-none-eabi/4.7.3/../../../../arm-none-eabi/lib/armv7e-m\libm.a(lib_a-k_cos.o)
                0x080132a0                __kernel_cos
 *fill*         0x080134f8        0x8 00
 .text.__kernel_rem_pio2
                0x08013500      0xdec c:/chibistudio/tools/gnu tools arm embedded/4.7 2013q1/bin/../lib/gcc/arm-none-eabi/4.7.3/../../../../arm-none-eabi/lib/armv7e-m\libm.a(lib_a-k_rem_pio2.o)
                0x08013500                __kernel_rem_pio2
 *fill*         0x080142ec        0x4 00
 .text.__kernel_sin
                0x080142f0      0x170 c:/chibistudio/tools/gnu tools arm embedded/4.7 2013q1/bin/../lib/gcc/arm-none-eabi/4.7.3/../../../../arm-none-eabi/lib/armv7e-m\libm.a(lib_a-k_sin.o)
                0x080142f0                __kernel_sin
 .text.atan     0x08014460      0x368 c:/chibistudio/tools/gnu tools arm embedded/4.7 2013q1/bin/../lib/gcc/arm-none-eabi/4.7.3/../../../../arm-none-eabi/lib/armv7e-m\libm.a(lib_a-s_atan.o)
                0x08014460                atan
 *fill*         0x080147c8        0x8 00
 .text.fabs     0x080147d0        0x8 c:/chibistudio/tools/gnu tools arm embedded/4.7 2013q1/bin/../lib/gcc/arm-none-eabi/4.7.3/../../../../arm-none-eabi/lib/armv7e-m\libm.a(lib_a-s_fabs.o)
                0x080147d0                fabs
 *fill*         0x080147d8        0x8 00
 .text.finite   0x080147e0        0xc c:/chibistudio/tools/gnu tools arm embedded/4.7 2013q1/bin/../lib/gcc/arm-none-eabi/4.7.3/../../../../arm-none-eabi/lib/armv7e-m\libm.a(lib_a-s_finite.o)
                0x080147e0                finite
 *fill*         0x080147ec        0x4 00
 .text.floor    0x080147f0      0x110 c:/chibistudio/tools/gnu tools arm embedded/4.7 2013q1/bin/../lib/gcc/arm-none-eabi/4.7.3/../../../../arm-none-eabi/lib/armv7e-m\libm.a(lib_a-s_floor.o)
                0x080147f0                floor
 .text.__fpclassifyd
                0x08014900       0x68 c:/chibistudio/tools/gnu tools arm embedded/4.7 2013q1/bin/../lib/gcc/arm-none-eabi/4.7.3/../../../../arm-none-eabi/lib/armv7e-m\libm.a(lib_a-s_fpclassify.o)
                0x08014900                __fpclassifyd
 *fill*         0x08014968        0x8 00
 .text.matherr  0x08014970        0x4 c:/chibistudio/tools/gnu tools arm embedded/4.7 2013q1/bin/../lib/gcc/arm-none-eabi/4.7.3/../../../../arm-none-eabi/lib/armv7e-m\libm.a(lib_a-s_matherr.o)
                0x08014970                matherr
 *fill*         0x08014974        0xc 00
 .text.nan      0x08014980        0xc c:/chibistudio/tools/gnu tools arm embedded/4.7 2013q1/bin/../lib/gcc/arm-none-eabi/4.7.3/../../../../arm-none-eabi/lib/armv7e-m\libm.a(lib_a-s_nan.o)
                0x08014980                nan
 *fill*         0x0801498c        0x4 00
 .text.rint     0x08014990      0x128 c:/chibistudio/tools/gnu tools arm embedded/4.7 2013q1/bin/../lib/gcc/arm-none-eabi/4.7.3/../../../../arm-none-eabi/lib/armv7e-m\libm.a(lib_a-s_rint.o)
                0x08014990                rint
 *fill*         0x08014ab8        0x8 00
 .text.scalbn   0x08014ac0      0x108 c:/chibistudio/tools/gnu tools arm embedded/4.7 2013q1/bin/../lib/gcc/arm-none-eabi/4.7.3/../../../../arm-none-eabi/lib/armv7e-m\libm.a(lib_a-s_scalbn.o)
                0x08014ac0                scalbn
 *fill*         0x08014bc8        0x8 00
 .text.copysign
                0x08014bd0       0x18 c:/chibistudio/tools/gnu tools arm embedded/4.7 2013q1/bin/../lib/gcc/arm-none-eabi/4.7.3/../../../../arm-none-eabi/lib/armv7e-m\libm.a(lib_a-s_copysign.o)
                0x08014bd0                copysign
 *fill*         0x08014be8        0x8 00
 .text.__errno  0x08014bf0        0xc c:/chibistudio/tools/gnu tools arm embedded/4.7 2013q1/bin/../lib/gcc/arm-none-eabi/4.7.3/../../../../arm-none-eabi/lib/armv7e-m\libc.a(lib_a-errno.o)
                0x08014bf0                __errno
 *fill*         0x08014bfc        0x4 00
 .text.memcpy   0x08014c00      0x144 c:/chibistudio/tools/gnu tools arm embedded/4.7 2013q1/bin/../lib/gcc/arm-none-eabi/4.7.3/../../../../arm-none-eabi/lib/armv7e-m\libc.a(lib_a-memcpy.o)
                0x08014c00                memcpy
 *fill*         0x08014d44        0xc 00
 .text.memset   0x08014d50      0x12c c:/chibistudio/tools/gnu tools arm embedded/4.7 2013q1/bin/../lib/gcc/arm-none-eabi/4.7.3/../../../../arm-none-eabi/lib/armv7e-m\libc.a(lib_a-memset.o)
                0x08014d50                memset
 *fill*         0x08014e7c        0x4 00
 .text.strcpy   0x08014e80       0xbc c:/chibistudio/tools/gnu tools arm embedded/4.7 2013q1/bin/../lib/gcc/arm-none-eabi/4.7.3/../../../../arm-none-eabi/lib/armv7e-m\libc.a(lib_a-strcpy.o)
                0x08014e80                strcpy
 *(.rodata)
 *fill*         0x08014f3c        0x4 00
 .rodata        0x08014f40        0x8 build/obj/chsys.o
 *fill*         0x08014f48        0x8 00
 .rodata        0x08014f50       0x58 build/obj/chdebug.o
 *fill*         0x08014fa8        0x8 00
 .rodata        0x08014fb0       0x34 build/obj/chvt.o
 *fill*         0x08014fe4        0xc 00
 .rodata        0x08014ff0       0x24 build/obj/chschd.o
 *fill*         0x08015014        0xc 00
 .rodata        0x08015020       0x94 build/obj/chthreads.o
 *fill*         0x080150b4        0xc 00
 .rodata        0x080150c0       0x48 build/obj/chdynamic.o
 *fill*         0x08015108        0x8 00
 .rodata        0x08015110      0x148 build/obj/chsem.o
 *fill*         0x08015258        0x8 00
 .rodata        0x08015260       0xac build/obj/chmtx.o
 *fill*         0x0801530c        0x4 00
 .rodata        0x08015310       0x90 build/obj/chevents.o
 .rodata        0x080153a0       0x88 build/obj/chmboxes.o
 *fill*         0x08015428        0x8 00
 .rodata        0x08015430       0x2c build/obj/chqueues.o
 *fill*         0x0801545c        0x4 00
 .rodata        0x08015460       0x34 build/obj/chheap.o
 *fill*         0x08015494        0xc 00
 .rodata        0x080154a0       0x48 build/obj/chmempools.o
 *fill*         0x080154e8        0x8 00
 .rodata        0x080154f0      0x110 build/obj/adc.o
 .rodata        0x08015600       0xd0 build/obj/ext.o
 .rodata        0x080156d0      0x10c build/obj/gpt.o
 *fill*         0x080157dc        0x4 00
 .rodata        0x080157e0       0xec build/obj/i2c.o
 *fill*         0x080158cc        0x4 00
 .rodata        0x080158d0       0x14 build/obj/mmcsd.o
 *fill*         0x080158e4        0xc 00
 .rodata        0x080158f0       0x40 build/obj/rtc.o
 .rodata        0x08015930      0x138 build/obj/sdc.o
 *fill*         0x08015a68        0x8 00
 .rodata        0x08015a70       0x60 build/obj/serial.o
 .rodata        0x08015ad0      0x238 build/obj/spi.o
 *fill*         0x08015d08        0x8 00
 .rodata        0x08015d10       0x48 build/obj/stm32_dma.o
 *fill*         0x08015d58        0x8 00
 .rodata        0x08015d60       0x3c build/obj/adc_lld.o
 *fill*         0x08015d9c        0x4 00
 .rodata        0x08015da0       0x14 build/obj/gpt_lld.o
 *fill*         0x08015db4        0xc 00
 .rodata        0x08015dc0       0x80 build/obj/sdc_lld.o
 .rodata        0x08015e40      0x100 build/obj/i2c_lld.o
 .rodata        0x08015f40       0x50 build/obj/spi_lld.o
 .rodata        0x08015f90        0x8 build/obj/chprintf.o
 *fill*         0x08015f98        0x8 00
 .rodata        0x08015fa0       0x54 build/obj/ff.o
 *fill*         0x08015ff4        0xc 00
 .rodata        0x08016000        0xc build/obj/kb_altimeter.o
 *fill*         0x0801600c        0x4 00
 .rodata        0x08016010      0x114 build/obj/kb_debug.o
 *fill*         0x08016124        0xc 00
 .rodata        0x08016130       0x34 build/obj/kb_featureA.o
 *fill*         0x08016164        0xc 00
 .rodata        0x08016170        0x4 build/obj/kb_gps.o
 *fill*         0x08016174        0xc 00
 .rodata        0x08016180       0x24 build/obj/kb_menu.o
 *fill*         0x080161a4        0xc 00
 .rodata        0x080161b0       0x70 build/obj/kb_screen.o
 .rodata        0x08016220       0xac build/obj/kb_writer.o
 *fill*         0x080162cc        0x4 00
 .rodata        0x080162d0       0x2c build/obj/main.o
 *(.rodata.*)
 *fill*         0x080162fc        0x4 00
 .rodata.ch_debug
                0x08016300       0x18 build/obj/chregistry.o
                0x08016300                ch_debug
 *fill*         0x08016318        0x8 00
 .rodata.sdc_vmt
                0x08016320       0x20 build/obj/sdc.o
 .rodata.vmt    0x08016340       0x20 build/obj/serial.o
 .rodata._stm32_dma_streams
                0x08016360       0xc0 build/obj/stm32_dma.o
                0x08016360                _stm32_dma_streams
 .rodata.default_config
                0x08016420        0xc build/obj/serial_lld.o
 *fill*         0x0801642c        0x4 00
 .rodata.pal_default_config
                0x08016430       0xfc build/obj/board.o
                0x08016430                pal_default_config
 *fill*         0x0801652c        0x4 00
 .rodata.vmt    0x08016530       0x10 build/obj/memstreams.o
 .rodata.ExCvt  0x08016540       0x80 build/obj/ff.o
 .rodata.ST7565font
                0x080165c0      0x4fc build/obj/glcdfont.o
                0x080165c0                ST7565font
 *fill*         0x08016abc        0x4 00
 .rodata.adc_grp_cfg
                0x08016ac0       0x28 build/obj/kb_adc.o
 *fill*         0x08016ae8        0x8 00
 .rodata.default_vectornav_config
                0x08016af0       0x14 build/obj/kb_vectornav.o
 *fill*         0x08016b04        0xc 00
 .rodata.sdio_cfg
                0x08016b10        0x4 build/obj/main.o
 *fill*         0x08016b14        0xc 00
 .rodata.eeprom_cfg
                0x08016b20        0xc build/obj/main.o
 *fill*         0x08016b2c        0x4 00
 .rodata.lcd_cfg
                0x08016b30       0x1c build/obj/main.o
 *fill*         0x08016b4c        0x4 00
 .rodata.extcfg
                0x08016b50       0xb8 build/obj/main.o
 *fill*         0x08016c08        0x8 00
 .rodata.i2cfg2
                0x08016c10        0xc build/obj/main.o
 *fill*         0x08016c1c        0x4 00
 .rodata.pagemap
                0x08016c20        0x4 build/obj/ST7565.o
 *fill*         0x08016c24        0xc 00
 .rodata.st7565_nanibox
                0x08016c30      0x200 build/obj/ST7565.o
 .rodata.str1.4
                0x08016e30        0x4 c:/chibistudio/tools/gnu tools arm embedded/4.7 2013q1/bin/../lib/gcc/arm-none-eabi/4.7.3/../../../../arm-none-eabi/lib/armv7e-m\libm.a(lib_a-w_pow.o)
 *fill*         0x08016e34        0xc 00
 .rodata.str1.4
                0x08016e40        0x5 c:/chibistudio/tools/gnu tools arm embedded/4.7 2013q1/bin/../lib/gcc/arm-none-eabi/4.7.3/../../../../arm-none-eabi/lib/armv7e-m\libm.a(lib_a-w_sqrt.o)
                                  0x8 (size before relaxing)
 *fill*         0x08016e45        0xb 00
 .rodata.dp_h   0x08016e50       0x10 c:/chibistudio/tools/gnu tools arm embedded/4.7 2013q1/bin/../lib/gcc/arm-none-eabi/4.7.3/../../../../arm-none-eabi/lib/armv7e-m\libm.a(lib_a-e_pow.o)
 .rodata.dp_l   0x08016e60       0x10 c:/chibistudio/tools/gnu tools arm embedded/4.7 2013q1/bin/../lib/gcc/arm-none-eabi/4.7.3/../../../../arm-none-eabi/lib/armv7e-m\libm.a(lib_a-e_pow.o)
 .rodata.bp     0x08016e70       0x10 c:/chibistudio/tools/gnu tools arm embedded/4.7 2013q1/bin/../lib/gcc/arm-none-eabi/4.7.3/../../../../arm-none-eabi/lib/armv7e-m\libm.a(lib_a-e_pow.o)
 .rodata.str1.4
                0x00000000        0x5 c:/chibistudio/tools/gnu tools arm embedded/4.7 2013q1/bin/../lib/gcc/arm-none-eabi/4.7.3/../../../../arm-none-eabi/lib/armv7e-m\libm.a(lib_a-e_pow.o)
                                  0x4 (size before relaxing)
 .rodata.npio2_hw
                0x08016e80       0x80 c:/chibistudio/tools/gnu tools arm embedded/4.7 2013q1/bin/../lib/gcc/arm-none-eabi/4.7.3/../../../../arm-none-eabi/lib/armv7e-m\libm.a(lib_a-e_rem_pio2.o)
 .rodata.two_over_pi
                0x08016f00      0x108 c:/chibistudio/tools/gnu tools arm embedded/4.7 2013q1/bin/../lib/gcc/arm-none-eabi/4.7.3/../../../../arm-none-eabi/lib/armv7e-m\libm.a(lib_a-e_rem_pio2.o)
 *fill*         0x08017008        0x8 00
 .rodata.init_jk
                0x08017010       0x10 c:/chibistudio/tools/gnu tools arm embedded/4.7 2013q1/bin/../lib/gcc/arm-none-eabi/4.7.3/../../../../arm-none-eabi/lib/armv7e-m\libm.a(lib_a-k_rem_pio2.o)
 .rodata.PIo2   0x08017020       0x40 c:/chibistudio/tools/gnu tools arm embedded/4.7 2013q1/bin/../lib/gcc/arm-none-eabi/4.7.3/../../../../arm-none-eabi/lib/armv7e-m\libm.a(lib_a-k_rem_pio2.o)
 .rodata.atanlo
                0x08017060       0x20 c:/chibistudio/tools/gnu tools arm embedded/4.7 2013q1/bin/../lib/gcc/arm-none-eabi/4.7.3/../../../../arm-none-eabi/lib/armv7e-m\libm.a(lib_a-s_atan.o)
 .rodata.atanhi
                0x08017080       0x20 c:/chibistudio/tools/gnu tools arm embedded/4.7 2013q1/bin/../lib/gcc/arm-none-eabi/4.7.3/../../../../arm-none-eabi/lib/armv7e-m\libm.a(lib_a-s_atan.o)
 .rodata.TWO52  0x080170a0       0x10 c:/chibistudio/tools/gnu tools arm embedded/4.7 2013q1/bin/../lib/gcc/arm-none-eabi/4.7.3/../../../../arm-none-eabi/lib/armv7e-m\libm.a(lib_a-s_rint.o)
 .rodata.str1.4
                0x080170b0        0x4 c:/chibistudio/tools/gnu tools arm embedded/4.7 2013q1/bin/../lib/gcc/arm-none-eabi/4.7.3/../../../../arm-none-eabi/lib/armv7e-m\libc.a(lib_a-impure.o)
 *(.glue_7t)
 .glue_7t       0x00000000        0x0 linker stubs
 *(.glue_7)
 .glue_7        0x00000000        0x0 linker stubs
 *(.gcc*)

.vfp11_veneer   0x080170b4        0x0
 .vfp11_veneer  0x00000000        0x0 linker stubs

.v4_bx          0x080170b4        0x0
 .v4_bx         0x00000000        0x0 linker stubs

.iplt           0x080170b4        0x0
 .iplt          0x00000000        0x0 build/obj/kb_debug_asm.o

.rel.dyn        0x080170b4        0x0
 .rel.iplt      0x00000000        0x0 build/obj/kb_debug_asm.o

.ARM.extab
 *(.ARM.extab* .gnu.linkonce.armextab.*)

.ARM.exidx      0x080170b4        0x0
                0x080170b4                PROVIDE (__exidx_start, .)
 *(.ARM.exidx* .gnu.linkonce.armexidx.*)
                0x080170b4                PROVIDE (__exidx_end, .)

.eh_frame_hdr
 *(.eh_frame_hdr)

.eh_frame
 *(.eh_frame)

.textalign      0x080170b4        0x4
                0x080170b8                . = ALIGN (0x8)
 *fill*         0x080170b4        0x4 00
                0x080170b8                _etext = .
                0x080170b8                _textdata = _etext

.stacks         0x20000000      0x800
                0x20000000                . = ALIGN (0x8)
                0x20000000                __main_stack_base__ = .
                0x20000400                . = (. + __main_stack_size__)
 *fill*         0x20000000      0x400 00
                0x20000400                . = ALIGN (0x8)
                0x20000400                __main_stack_end__ = .
                0x20000400                __process_stack_base__ = .
                0x20000400                __main_thread_stack_base__ = .
                0x20000800                . = (. + __process_stack_size__)
 *fill*         0x20000400      0x400 00
                0x20000800                . = ALIGN (0x8)
                0x20000800                __process_stack_end__ = .
                0x20000800                __main_thread_stack_end__ = .

.data           0x20000800      0x66c load address 0x080170b8
                0x20000800                . = ALIGN (0x4)
                0x20000800                PROVIDE (_data, .)
 *(.data)
                0x20000800                . = ALIGN (0x4)
 *(.data.*)
 .data.gps_cfg  0x20000800        0xc build/obj/kb_gps.o
 .data.current_item
                0x2000080c        0x2 build/obj/kb_menu.o
                0x2000080c                current_item
 *fill*         0x2000080e        0x2 00
 .data.menu_items
                0x20000810      0x210 build/obj/kb_menu.o
                0x20000810                menu_items
 .data.serial1_default_cfg
                0x20000a20        0xc build/obj/kb_serial.o
 .data.serial2_default_cfg
                0x20000a2c        0xc build/obj/kb_serial.o
 .data.__fdlib_version
                0x20000a38        0x1 c:/chibistudio/tools/gnu tools arm embedded/4.7 2013q1/bin/../lib/gcc/arm-none-eabi/4.7.3/../../../../arm-none-eabi/lib/armv7e-m\libm.a(lib_a-s_lib_ver.o)
                0x20000a38                __fdlib_version
 *fill*         0x20000a39        0x7 00
 .data.impure_data
                0x20000a40      0x428 c:/chibistudio/tools/gnu tools arm embedded/4.7 2013q1/bin/../lib/gcc/arm-none-eabi/4.7.3/../../../../arm-none-eabi/lib/armv7e-m\libc.a(lib_a-impure.o)
 .data._impure_ptr
                0x20000e68        0x4 c:/chibistudio/tools/gnu tools arm embedded/4.7 2013q1/bin/../lib/gcc/arm-none-eabi/4.7.3/../../../../arm-none-eabi/lib/armv7e-m\libc.a(lib_a-impure.o)
                0x20000e68                _impure_ptr
                0x20000e6c                . = ALIGN (0x4)
 *(.ramtext)
                0x20000e6c                . = ALIGN (0x4)
                0x20000e6c                PROVIDE (_edata, .)

.igot.plt       0x20000e6c        0x0 load address 0x08017724
 .igot.plt      0x00000000        0x0 build/obj/kb_debug_asm.o

.bss            0x20000e70    0x11f00 load address 0x08017724
                0x20000e70                . = ALIGN (0x4)
                0x20000e70                PROVIDE (_bss_start, .)
 *(.bss)
                0x20000e70                . = ALIGN (0x4)
 *(.bss.*)
 .bss._idle_thread_wa
                0x20000e70      0x158 build/obj/chsys.o
                0x20000e70                _idle_thread_wa
 .bss.mainthread.4860
                0x20000fc8       0x4c build/obj/chsys.o
 .bss.dbg_isr_cnt
                0x20001014        0x4 build/obj/chdebug.o
                0x20001014                dbg_isr_cnt
 .bss.dbg_lock_cnt
                0x20001018        0x4 build/obj/chdebug.o
                0x20001018                dbg_lock_cnt
 .bss.dbg_trace_buffer
                0x2000101c      0x408 build/obj/chdebug.o
                0x2000101c                dbg_trace_buffer
 .bss.dbg_panic_msg
                0x20001424        0x4 build/obj/chdebug.o
                0x20001424                dbg_panic_msg
 .bss.vtlist    0x20001428       0x10 build/obj/chvt.o
                0x20001428                vtlist
 .bss.rlist     0x20001438       0x1c build/obj/chschd.o
                0x20001438                rlist
 .bss.nextmem   0x20001454        0x4 build/obj/chmemcore.o
 .bss.endmem    0x20001458        0x4 build/obj/chmemcore.o
 *fill*         0x2000145c        0x4 00
 .bss.default_heap
                0x20001460       0x20 build/obj/chheap.o
 .bss.dma_streams_mask
                0x20001480        0x4 build/obj/stm32_dma.o
 .bss.dma_isr_redir
                0x20001484       0x80 build/obj/stm32_dma.o
 .bss.ADCD1     0x20001504       0x34 build/obj/adc_lld.o
                0x20001504                ADCD1
 .bss.ADCD2     0x20001538       0x34 build/obj/adc_lld.o
                0x20001538                ADCD2
 .bss.ADCD3     0x2000156c       0x34 build/obj/adc_lld.o
                0x2000156c                ADCD3
 .bss.EXTD1     0x200015a0        0x8 build/obj/ext_lld.o
                0x200015a0                EXTD1
 .bss.GPTD14    0x200015a8       0x10 build/obj/gpt_lld.o
                0x200015a8                GPTD14
 .bss.ICUD1     0x200015b8       0x18 build/obj/icu_lld.o
                0x200015b8                ICUD1
 .bss.SDCD1     0x200015d0       0x4c build/obj/sdc_lld.o
                0x200015d0                SDCD1
 .bss.u         0x2000161c      0x200 build/obj/sdc_lld.o
 .bss.I2CD2     0x2000181c       0x38 build/obj/i2c_lld.o
                0x2000181c                I2CD2
 .bss.RTCD1     0x20001854        0x4 build/obj/rtc_lld.o
                0x20001854                RTCD1
 .bss.SPID1     0x20001858       0x30 build/obj/spi_lld.o
                0x20001858                SPID1
 .bss.SPID2     0x20001888       0x30 build/obj/spi_lld.o
                0x20001888                SPID2
 .bss.dummytx   0x200018b8        0x2 build/obj/spi_lld.o
 .bss.dummyrx   0x200018ba        0x2 build/obj/spi_lld.o
 .bss.SD1       0x200018bc       0xd8 build/obj/serial_lld.o
                0x200018bc                SD1
 .bss.SD2       0x20001994       0xd8 build/obj/serial_lld.o
                0x20001994                SD2
 .bss.SD6       0x20001a6c       0xd8 build/obj/serial_lld.o
                0x20001a6c                SD6
 .bss.FatFs     0x20001b44        0x4 build/obj/ff.o
 .bss.Fsid      0x20001b48        0x2 build/obj/ff.o
 *fill*         0x20001b4a        0x2 00
 .bss.adc_samples
                0x20001b4c        0xc build/obj/kb_adc.o
 .bss.adc_trigger
                0x20001b58       0x14 build/obj/kb_adc.o
 .bss.adc_cfg   0x20001b6c        0x4 build/obj/kb_adc.o
 .bss.txbuf     0x20001b70        0x4 build/obj/kb_altimeter.o
 .bss.rxbuf     0x20001b74        0x8 build/obj/kb_altimeter.o
 .bss.errors    0x20001b7c        0x4 build/obj/kb_altimeter.o
 .bss.altimeterThread
                0x20001b80        0x4 build/obj/kb_altimeter.o
 *fill*         0x20001b84        0x4 00
 .bss.waAltimeter
                0x20001b88      0x238 build/obj/kb_altimeter.o
 .bss.btn_0_pressed
                0x20001dc0        0x1 build/obj/kb_buttons.o
 .bss.btn_1_pressed
                0x20001dc1        0x1 build/obj/kb_buttons.o
 *fill*         0x20001dc2        0x2 00
 .bss.config    0x20001dc4       0x18 build/obj/kb_config.o
                0x20001dc4                config
 .bss.current_feature
                0x20001ddc        0x4 build/obj/kb_featureA.o
 .bss.featureAThread
                0x20001de0        0x4 build/obj/kb_featureA.o
 *fill*         0x20001de4        0x4 00
 .bss.waFeatureA
                0x20001de8      0x338 build/obj/kb_featureA.o
 .bss.ubx_nav_sol_buffer
                0x20002120       0x3c build/obj/kb_gps.o
                0x20002120                ubx_nav_sol_buffer
 .bss.ubx_nav_sol_idx
                0x2000215c        0x1 build/obj/kb_gps.o
                0x2000215c                ubx_nav_sol_idx
 *fill*         0x2000215d        0x3 00
 .bss.ubx_nav_sol_valid
                0x20002160       0x3c build/obj/kb_gps.o
                0x20002160                ubx_nav_sol_valid
 .bss.gpsThread
                0x2000219c        0x4 build/obj/kb_gps.o
 .bss.waGps     0x200021a0      0x1b8 build/obj/kb_gps.o
 .bss.kuroBox_request_standby
                0x20002358        0x1 build/obj/kb_menu.o
                0x20002358                kuroBox_request_standby
 *fill*         0x20002359        0x3 00
 .bss.btn_semaphore
                0x2000235c        0xc build/obj/kb_menu.o
 .bss.btn_msgs  0x20002368       0x28 build/obj/kb_menu.o
 .bss.btn_mailbox
                0x20002390       0x28 build/obj/kb_menu.o
 .bss.charbuf   0x200023b8       0x80 build/obj/kb_menu.o
 .bss.msb       0x20002438       0x14 build/obj/kb_menu.o
 .bss.screenThread
                0x2000244c        0x4 build/obj/kb_screen.o
 .bss.screen    0x20002450       0x48 build/obj/kb_screen.o
 .bss.charbuf   0x20002498       0x80 build/obj/kb_screen.o
 .bss.msb       0x20002518       0x14 build/obj/kb_screen.o
 *fill*         0x2000252c        0x4 00
 .bss.waScreen  0x20002530     0x1138 build/obj/kb_screen.o
 .bss.serial1_cfg
                0x20003668        0x4 build/obj/kb_serial.o
 .bss.serial2_cfg
                0x2000366c        0x4 build/obj/kb_serial.o
 .bss.last_edge_time
                0x20003670        0x4 build/obj/kb_time.o
 .bss.was_last_edge_short
                0x20003674        0x1 build/obj/kb_time.o
 *fill*         0x20003675        0x3 00
 .bss.ltc_frame
                0x20003678        0xc build/obj/kb_time.o
 .bss.ltc_timecode
                0x20003684        0x4 build/obj/kb_time.o
 .bss.VND1      0x20003688        0xc build/obj/kb_vectornav.o
                0x20003688                VND1
 .bss.async_vn_msg
                0x20003694      0x408 build/obj/kb_vectornav.o
 .bss.vnav_data
                0x20003a9c       0x10 build/obj/kb_vectornav.o
                0x20003a9c                vnav_data
 .bss.writer_header
                0x20003aac      0x200 build/obj/kb_writer.o
 .bss.loggerThread
                0x20003cac        0x4 build/obj/kb_writer.o
 .bss.writerThread
                0x20003cb0        0x4 build/obj/kb_writer.o
 .bss.writerThreadForSleep
                0x20003cb4        0x4 build/obj/kb_writer.o
 .bss.logger_state
                0x20003cb8        0x1 build/obj/kb_writer.o
 .bss.fs_ready  0x20003cb9        0x1 build/obj/kb_writer.o
 .bss.fs_write_protected
                0x20003cba        0x1 build/obj/kb_writer.o
 *fill*         0x20003cbb        0x1 00
 .bss.SDC_FS    0x20003cbc      0x234 build/obj/kb_writer.o
 .bss.cardsize_MB
                0x20003ef0        0x4 build/obj/kb_writer.o
                0x20003ef0                cardsize_MB
 .bss.current_msg
                0x20003ef4      0x200 build/obj/kb_writer.o
 .bss.write_buffer_semaphore
                0x200040f4        0xc build/obj/kb_writer.o
 .bss.write_buffers
                0x20004100     0xc004 build/obj/kb_writer.o
 .bss.kbfile    0x20010104      0x224 build/obj/kb_writer.o
                0x20010104                kbfile
 .bss.waWriter  0x20010328     0x2138 build/obj/kb_writer.o
 .bss.waLogger  0x20012460      0x538 build/obj/kb_writer.o
 .bss.lcd_buffer
                0x20012998      0x200 build/obj/main.o
 .bss.blinkerThread
                0x20012b98        0x4 build/obj/main.o
 .bss.global_state
                0x20012b9c        0x4 build/obj/main.o
 .bss.waBlinker
                0x20012ba0      0x1b8 build/obj/main.o
 .bss.spiEepromD1
                0x20012d58        0x8 build/obj/spiEEPROM.o
                0x20012d58                spiEepromD1
 .bss.ST7565D1  0x20012d60        0xc build/obj/ST7565.o
                0x20012d60                ST7565D1
 .bss.xUpdateMin
                0x20012d6c        0x1 build/obj/ST7565.o
 .bss.xUpdateMax
                0x20012d6d        0x1 build/obj/ST7565.o
 .bss.yUpdateMin
                0x20012d6e        0x1 build/obj/ST7565.o
 .bss.yUpdateMax
                0x20012d6f        0x1 build/obj/ST7565.o
                0x20012d70                . = ALIGN (0x4)
 *(COMMON)
                0x20012d70                . = ALIGN (0x4)
                0x20012d70                PROVIDE (_bss_end, .)
                0x20012d70                PROVIDE (end, .)
                0x20012d70                _end = .
                0x20012d70                __heap_base__ = _end
                0x2001c000                __heap_end__ = __ram_end__
OUTPUT(build/kuroBox.elf elf32-littlearm)

.ARM.attributes
                0x00000000       0x35
 .ARM.attributes
                0x00000000       0x21 build/obj/kb_debug_asm.o
 .ARM.attributes
                0x00000021       0x39 build/obj/crt0.o
 .ARM.attributes
                0x0000005a       0x39 build/obj/vectors.o
 .ARM.attributes
                0x00000093       0x39 build/obj/chcore.o
 .ARM.attributes
                0x000000cc       0x39 build/obj/chcore_v7m.o
 .ARM.attributes
                0x00000105       0x39 build/obj/nvic.o
 .ARM.attributes
                0x0000013e       0x39 build/obj/chsys.o
 .ARM.attributes
                0x00000177       0x39 build/obj/chdebug.o
 .ARM.attributes
                0x000001b0       0x39 build/obj/chvt.o
 .ARM.attributes
                0x000001e9       0x39 build/obj/chschd.o
 .ARM.attributes
                0x00000222       0x39 build/obj/chthreads.o
 .ARM.attributes
                0x0000025b       0x39 build/obj/chdynamic.o
 .ARM.attributes
                0x00000294       0x39 build/obj/chregistry.o
 .ARM.attributes
                0x000002cd       0x39 build/obj/chsem.o
 .ARM.attributes
                0x00000306       0x39 build/obj/chmtx.o
 .ARM.attributes
                0x0000033f       0x39 build/obj/chevents.o
 .ARM.attributes
                0x00000378       0x39 build/obj/chmboxes.o
 .ARM.attributes
                0x000003b1       0x39 build/obj/chqueues.o
 .ARM.attributes
                0x000003ea       0x39 build/obj/chmemcore.o
 .ARM.attributes
                0x00000423       0x39 build/obj/chheap.o
 .ARM.attributes
                0x0000045c       0x39 build/obj/chmempools.o
 .ARM.attributes
                0x00000495       0x39 build/obj/hal.o
 .ARM.attributes
                0x000004ce       0x39 build/obj/adc.o
 .ARM.attributes
                0x00000507       0x39 build/obj/ext.o
 .ARM.attributes
                0x00000540       0x39 build/obj/gpt.o
 .ARM.attributes
                0x00000579       0x39 build/obj/i2c.o
 .ARM.attributes
                0x000005b2       0x39 build/obj/icu.o
 .ARM.attributes
                0x000005eb       0x39 build/obj/mmcsd.o
 .ARM.attributes
                0x00000624       0x39 build/obj/rtc.o
 .ARM.attributes
                0x0000065d       0x39 build/obj/sdc.o
 .ARM.attributes
                0x00000696       0x39 build/obj/serial.o
 .ARM.attributes
                0x000006cf       0x39 build/obj/spi.o
 .ARM.attributes
                0x00000708       0x39 build/obj/stm32_dma.o
 .ARM.attributes
                0x00000741       0x39 build/obj/hal_lld.o
 .ARM.attributes
                0x0000077a       0x39 build/obj/adc_lld.o
 .ARM.attributes
                0x000007b3       0x39 build/obj/ext_lld_isr.o
 .ARM.attributes
                0x000007ec       0x39 build/obj/ext_lld.o
 .ARM.attributes
                0x00000825       0x39 build/obj/gpt_lld.o
 .ARM.attributes
                0x0000085e       0x39 build/obj/icu_lld.o
 .ARM.attributes
                0x00000897       0x39 build/obj/sdc_lld.o
 .ARM.attributes
                0x000008d0       0x39 build/obj/pal_lld.o
 .ARM.attributes
                0x00000909       0x39 build/obj/i2c_lld.o
 .ARM.attributes
                0x00000942       0x39 build/obj/rtc_lld.o
 .ARM.attributes
                0x0000097b       0x39 build/obj/spi_lld.o
 .ARM.attributes
                0x000009b4       0x39 build/obj/serial_lld.o
 .ARM.attributes
                0x000009ed       0x39 build/obj/board.o
 .ARM.attributes
                0x00000a26       0x39 build/obj/chprintf.o
 .ARM.attributes
                0x00000a5f       0x39 build/obj/chrtclib.o
 .ARM.attributes
                0x00000a98       0x39 build/obj/memstreams.o
 .ARM.attributes
                0x00000ad1       0x39 build/obj/fatfs_diskio.o
 .ARM.attributes
                0x00000b0a       0x39 build/obj/ff.o
 .ARM.attributes
                0x00000b43       0x39 build/obj/glcdfont.o
 .ARM.attributes
                0x00000b7c       0x39 build/obj/kb_adc.o
 .ARM.attributes
                0x00000bb5       0x39 build/obj/kb_altimeter.o
 .ARM.attributes
                0x00000bee       0x39 build/obj/kb_buttons.o
 .ARM.attributes
                0x00000c27       0x39 build/obj/kb_config.o
 .ARM.attributes
                0x00000c60       0x39 build/obj/kb_debug.o
 .ARM.attributes
                0x00000c99       0x39 build/obj/kb_featureA.o
 .ARM.attributes
                0x00000cd2       0x39 build/obj/kb_gps.o
 .ARM.attributes
                0x00000d0b       0x39 build/obj/kb_menu.o
 .ARM.attributes
                0x00000d44       0x39 build/obj/kb_screen.o
 .ARM.attributes
                0x00000d7d       0x39 build/obj/kb_serial.o
 .ARM.attributes
                0x00000db6       0x39 build/obj/kb_time.o
 .ARM.attributes
                0x00000def       0x39 build/obj/kb_util.o
 .ARM.attributes
                0x00000e28       0x39 build/obj/kb_vectornav.o
 .ARM.attributes
                0x00000e61       0x39 build/obj/kb_writer.o
 .ARM.attributes
                0x00000e9a       0x39 build/obj/main.o
 .ARM.attributes
                0x00000ed3       0x39 build/obj/spiEEPROM.o
 .ARM.attributes
                0x00000f0c       0x39 build/obj/ST7565.o
 .ARM.attributes
                0x00000f45       0x2e c:/chibistudio/tools/gnu tools arm embedded/4.7 2013q1/bin/../lib/gcc/arm-none-eabi/4.7.3/../../../../arm-none-eabi/lib/armv7e-m\libm.a(lib_a-s_cos.o)
 .ARM.attributes
                0x00000f73       0x2e c:/chibistudio/tools/gnu tools arm embedded/4.7 2013q1/bin/../lib/gcc/arm-none-eabi/4.7.3/../../../../arm-none-eabi/lib/armv7e-m\libm.a(lib_a-s_sin.o)
 .ARM.attributes
                0x00000fa1       0x2e c:/chibistudio/tools/gnu tools arm embedded/4.7 2013q1/bin/../lib/gcc/arm-none-eabi/4.7.3/../../../../arm-none-eabi/lib/armv7e-m\libm.a(lib_a-w_atan2.o)
 .ARM.attributes
                0x00000fcf       0x2e c:/chibistudio/tools/gnu tools arm embedded/4.7 2013q1/bin/../lib/gcc/arm-none-eabi/4.7.3/../../../../arm-none-eabi/lib/armv7e-m\libm.a(lib_a-w_pow.o)
 .ARM.attributes
                0x00000ffd       0x2e c:/chibistudio/tools/gnu tools arm embedded/4.7 2013q1/bin/../lib/gcc/arm-none-eabi/4.7.3/../../../../arm-none-eabi/lib/armv7e-m\libm.a(lib_a-w_sqrt.o)
 .ARM.attributes
                0x0000102b       0x2e c:/chibistudio/tools/gnu tools arm embedded/4.7 2013q1/bin/../lib/gcc/arm-none-eabi/4.7.3/../../../../arm-none-eabi/lib/armv7e-m\libm.a(lib_a-e_atan2.o)
 .ARM.attributes
                0x00001059       0x2e c:/chibistudio/tools/gnu tools arm embedded/4.7 2013q1/bin/../lib/gcc/arm-none-eabi/4.7.3/../../../../arm-none-eabi/lib/armv7e-m\libm.a(lib_a-e_pow.o)
 .ARM.attributes
                0x00001087       0x2e c:/chibistudio/tools/gnu tools arm embedded/4.7 2013q1/bin/../lib/gcc/arm-none-eabi/4.7.3/../../../../arm-none-eabi/lib/armv7e-m\libm.a(lib_a-e_rem_pio2.o)
 .ARM.attributes
                0x000010b5       0x2e c:/chibistudio/tools/gnu tools arm embedded/4.7 2013q1/bin/../lib/gcc/arm-none-eabi/4.7.3/../../../../arm-none-eabi/lib/armv7e-m\libm.a(lib_a-e_sqrt.o)
 .ARM.attributes
                0x000010e3       0x2e c:/chibistudio/tools/gnu tools arm embedded/4.7 2013q1/bin/../lib/gcc/arm-none-eabi/4.7.3/../../../../arm-none-eabi/lib/armv7e-m\libm.a(lib_a-k_cos.o)
 .ARM.attributes
                0x00001111       0x2e c:/chibistudio/tools/gnu tools arm embedded/4.7 2013q1/bin/../lib/gcc/arm-none-eabi/4.7.3/../../../../arm-none-eabi/lib/armv7e-m\libm.a(lib_a-k_rem_pio2.o)
 .ARM.attributes
                0x0000113f       0x2e c:/chibistudio/tools/gnu tools arm embedded/4.7 2013q1/bin/../lib/gcc/arm-none-eabi/4.7.3/../../../../arm-none-eabi/lib/armv7e-m\libm.a(lib_a-k_sin.o)
 .ARM.attributes
                0x0000116d       0x2e c:/chibistudio/tools/gnu tools arm embedded/4.7 2013q1/bin/../lib/gcc/arm-none-eabi/4.7.3/../../../../arm-none-eabi/lib/armv7e-m\libm.a(lib_a-s_atan.o)
 .ARM.attributes
                0x0000119b       0x2e c:/chibistudio/tools/gnu tools arm embedded/4.7 2013q1/bin/../lib/gcc/arm-none-eabi/4.7.3/../../../../arm-none-eabi/lib/armv7e-m\libm.a(lib_a-s_fabs.o)
 .ARM.attributes
                0x000011c9       0x2e c:/chibistudio/tools/gnu tools arm embedded/4.7 2013q1/bin/../lib/gcc/arm-none-eabi/4.7.3/../../../../arm-none-eabi/lib/armv7e-m\libm.a(lib_a-s_finite.o)
 .ARM.attributes
                0x000011f7       0x2e c:/chibistudio/tools/gnu tools arm embedded/4.7 2013q1/bin/../lib/gcc/arm-none-eabi/4.7.3/../../../../arm-none-eabi/lib/armv7e-m\libm.a(lib_a-s_floor.o)
 .ARM.attributes
                0x00001225       0x2e c:/chibistudio/tools/gnu tools arm embedded/4.7 2013q1/bin/../lib/gcc/arm-none-eabi/4.7.3/../../../../arm-none-eabi/lib/armv7e-m\libm.a(lib_a-s_fpclassify.o)
 .ARM.attributes
                0x00001253       0x2e c:/chibistudio/tools/gnu tools arm embedded/4.7 2013q1/bin/../lib/gcc/arm-none-eabi/4.7.3/../../../../arm-none-eabi/lib/armv7e-m\libm.a(lib_a-s_lib_ver.o)
 .ARM.attributes
                0x00001281       0x2e c:/chibistudio/tools/gnu tools arm embedded/4.7 2013q1/bin/../lib/gcc/arm-none-eabi/4.7.3/../../../../arm-none-eabi/lib/armv7e-m\libm.a(lib_a-s_matherr.o)
 .ARM.attributes
                0x000012af       0x2e c:/chibistudio/tools/gnu tools arm embedded/4.7 2013q1/bin/../lib/gcc/arm-none-eabi/4.7.3/../../../../arm-none-eabi/lib/armv7e-m\libm.a(lib_a-s_nan.o)
 .ARM.attributes
                0x000012dd       0x2e c:/chibistudio/tools/gnu tools arm embedded/4.7 2013q1/bin/../lib/gcc/arm-none-eabi/4.7.3/../../../../arm-none-eabi/lib/armv7e-m\libm.a(lib_a-s_rint.o)
 .ARM.attributes
                0x0000130b       0x2e c:/chibistudio/tools/gnu tools arm embedded/4.7 2013q1/bin/../lib/gcc/arm-none-eabi/4.7.3/../../../../arm-none-eabi/lib/armv7e-m\libm.a(lib_a-s_scalbn.o)
 .ARM.attributes
                0x00001339       0x2e c:/chibistudio/tools/gnu tools arm embedded/4.7 2013q1/bin/../lib/gcc/arm-none-eabi/4.7.3/../../../../arm-none-eabi/lib/armv7e-m\libm.a(lib_a-s_copysign.o)
 .ARM.attributes
                0x00001367       0x1e c:/chibistudio/tools/gnu tools arm embedded/4.7 2013q1/bin/../lib/gcc/arm-none-eabi/4.7.3/armv7e-m\libgcc.a(_arm_addsubdf3.o)
 .ARM.attributes
                0x00001385       0x1e c:/chibistudio/tools/gnu tools arm embedded/4.7 2013q1/bin/../lib/gcc/arm-none-eabi/4.7.3/armv7e-m\libgcc.a(_arm_muldivdf3.o)
 .ARM.attributes
                0x000013a3       0x1e c:/chibistudio/tools/gnu tools arm embedded/4.7 2013q1/bin/../lib/gcc/arm-none-eabi/4.7.3/armv7e-m\libgcc.a(_arm_cmpdf2.o)
 .ARM.attributes
                0x000013c1       0x1e c:/chibistudio/tools/gnu tools arm embedded/4.7 2013q1/bin/../lib/gcc/arm-none-eabi/4.7.3/armv7e-m\libgcc.a(_arm_fixdfsi.o)
 .ARM.attributes
                0x000013df       0x1e c:/chibistudio/tools/gnu tools arm embedded/4.7 2013q1/bin/../lib/gcc/arm-none-eabi/4.7.3/armv7e-m\libgcc.a(_arm_truncdfsf2.o)
 .ARM.attributes
                0x000013fd       0x2e c:/chibistudio/tools/gnu tools arm embedded/4.7 2013q1/bin/../lib/gcc/arm-none-eabi/4.7.3/../../../../arm-none-eabi/lib/armv7e-m\libc.a(lib_a-errno.o)
 .ARM.attributes
                0x0000142b       0x2e c:/chibistudio/tools/gnu tools arm embedded/4.7 2013q1/bin/../lib/gcc/arm-none-eabi/4.7.3/../../../../arm-none-eabi/lib/armv7e-m\libc.a(lib_a-impure.o)
 .ARM.attributes
                0x00001459       0x2e c:/chibistudio/tools/gnu tools arm embedded/4.7 2013q1/bin/../lib/gcc/arm-none-eabi/4.7.3/../../../../arm-none-eabi/lib/armv7e-m\libc.a(lib_a-memcpy.o)
 .ARM.attributes
                0x00001487       0x2e c:/chibistudio/tools/gnu tools arm embedded/4.7 2013q1/bin/../lib/gcc/arm-none-eabi/4.7.3/../../../../arm-none-eabi/lib/armv7e-m\libc.a(lib_a-memset.o)
 .ARM.attributes
                0x000014b5       0x2e c:/chibistudio/tools/gnu tools arm embedded/4.7 2013q1/bin/../lib/gcc/arm-none-eabi/4.7.3/../../../../arm-none-eabi/lib/armv7e-m\libc.a(lib_a-strcpy.o)

.comment        0x00000000       0x70
 .comment       0x00000000       0x70 build/obj/crt0.o
                                 0x71 (size before relaxing)
 .comment       0x00000000       0x71 build/obj/vectors.o
 .comment       0x00000000       0x71 build/obj/chcore.o
 .comment       0x00000000       0x71 build/obj/chcore_v7m.o
 .comment       0x00000000       0x71 build/obj/nvic.o
 .comment       0x00000000       0x71 build/obj/chsys.o
 .comment       0x00000000       0x71 build/obj/chdebug.o
 .comment       0x00000000       0x71 build/obj/chvt.o
 .comment       0x00000000       0x71 build/obj/chschd.o
 .comment       0x00000000       0x71 build/obj/chthreads.o
 .comment       0x00000000       0x71 build/obj/chdynamic.o
 .comment       0x00000000       0x71 build/obj/chregistry.o
 .comment       0x00000000       0x71 build/obj/chsem.o
 .comment       0x00000000       0x71 build/obj/chmtx.o
 .comment       0x00000000       0x71 build/obj/chevents.o
 .comment       0x00000000       0x71 build/obj/chmboxes.o
 .comment       0x00000000       0x71 build/obj/chqueues.o
 .comment       0x00000000       0x71 build/obj/chmemcore.o
 .comment       0x00000000       0x71 build/obj/chheap.o
 .comment       0x00000000       0x71 build/obj/chmempools.o
 .comment       0x00000000       0x71 build/obj/hal.o
 .comment       0x00000000       0x71 build/obj/adc.o
 .comment       0x00000000       0x71 build/obj/ext.o
 .comment       0x00000000       0x71 build/obj/gpt.o
 .comment       0x00000000       0x71 build/obj/i2c.o
 .comment       0x00000000       0x71 build/obj/icu.o
 .comment       0x00000000       0x71 build/obj/mmcsd.o
 .comment       0x00000000       0x71 build/obj/rtc.o
 .comment       0x00000000       0x71 build/obj/sdc.o
 .comment       0x00000000       0x71 build/obj/serial.o
 .comment       0x00000000       0x71 build/obj/spi.o
 .comment       0x00000000       0x71 build/obj/stm32_dma.o
 .comment       0x00000000       0x71 build/obj/hal_lld.o
 .comment       0x00000000       0x71 build/obj/adc_lld.o
 .comment       0x00000000       0x71 build/obj/ext_lld_isr.o
 .comment       0x00000000       0x71 build/obj/ext_lld.o
 .comment       0x00000000       0x71 build/obj/gpt_lld.o
 .comment       0x00000000       0x71 build/obj/icu_lld.o
 .comment       0x00000000       0x71 build/obj/sdc_lld.o
 .comment       0x00000000       0x71 build/obj/pal_lld.o
 .comment       0x00000000       0x71 build/obj/i2c_lld.o
 .comment       0x00000000       0x71 build/obj/rtc_lld.o
 .comment       0x00000000       0x71 build/obj/spi_lld.o
 .comment       0x00000000       0x71 build/obj/serial_lld.o
 .comment       0x00000000       0x71 build/obj/board.o
 .comment       0x00000000       0x71 build/obj/chprintf.o
 .comment       0x00000000       0x71 build/obj/chrtclib.o
 .comment       0x00000000       0x71 build/obj/memstreams.o
 .comment       0x00000000       0x71 build/obj/fatfs_diskio.o
 .comment       0x00000000       0x71 build/obj/ff.o
 .comment       0x00000000       0x71 build/obj/glcdfont.o
 .comment       0x00000000       0x71 build/obj/kb_adc.o
 .comment       0x00000000       0x71 build/obj/kb_altimeter.o
 .comment       0x00000000       0x71 build/obj/kb_buttons.o
 .comment       0x00000000       0x71 build/obj/kb_config.o
 .comment       0x00000000       0x71 build/obj/kb_debug.o
 .comment       0x00000000       0x71 build/obj/kb_featureA.o
 .comment       0x00000000       0x71 build/obj/kb_gps.o
 .comment       0x00000000       0x71 build/obj/kb_menu.o
 .comment       0x00000000       0x71 build/obj/kb_screen.o
 .comment       0x00000000       0x71 build/obj/kb_serial.o
 .comment       0x00000000       0x71 build/obj/kb_time.o
 .comment       0x00000000       0x71 build/obj/kb_util.o
 .comment       0x00000000       0x71 build/obj/kb_vectornav.o
 .comment       0x00000000       0x71 build/obj/kb_writer.o
 .comment       0x00000000       0x71 build/obj/main.o
 .comment       0x00000000       0x71 build/obj/spiEEPROM.o
 .comment       0x00000000       0x71 build/obj/ST7565.o

.debug_info     0x00000000    0x2c695
 .debug_info    0x00000000      0x2a3 build/obj/crt0.o
 .debug_info    0x000002a3      0x1f0 build/obj/vectors.o
 .debug_info    0x00000493       0x9a build/obj/chcore.o
 .debug_info    0x0000052d      0xa98 build/obj/chcore_v7m.o
 .debug_info    0x00000fc5      0x44d build/obj/nvic.o
 .debug_info    0x00001412      0x8c0 build/obj/chsys.o
 .debug_info    0x00001cd2      0x8fe build/obj/chdebug.o
 .debug_info    0x000025d0      0x272 build/obj/chvt.o
 .debug_info    0x00002842      0x92a build/obj/chschd.o
 .debug_info    0x0000316c      0xb9b build/obj/chthreads.o
 .debug_info    0x00003d07      0x86d build/obj/chdynamic.o
 .debug_info    0x00004574      0x77d build/obj/chregistry.o
 .debug_info    0x00004cf1      0x9f5 build/obj/chsem.o
 .debug_info    0x000056e6      0x92f build/obj/chmtx.o
 .debug_info    0x00006015      0xdd6 build/obj/chevents.o
 .debug_info    0x00006deb      0x9a1 build/obj/chmboxes.o
 .debug_info    0x0000778c      0xbad build/obj/chqueues.o
 .debug_info    0x00008339      0x1e6 build/obj/chmemcore.o
 .debug_info    0x0000851f      0x75f build/obj/chheap.o
 .debug_info    0x00008c7e      0x300 build/obj/chmempools.o
 .debug_info    0x00008f7e      0x325 build/obj/hal.o
 .debug_info    0x000092a3      0xdba build/obj/adc.o
 .debug_info    0x0000a05d      0x3e0 build/obj/ext.o
 .debug_info    0x0000a43d      0x729 build/obj/gpt.o
 .debug_info    0x0000ab66      0xbdd build/obj/i2c.o
 .debug_info    0x0000b743      0x611 build/obj/icu.o
 .debug_info    0x0000bd54      0x18f build/obj/mmcsd.o
 .debug_info    0x0000bee3      0x609 build/obj/rtc.o
 .debug_info    0x0000c4ec      0xea7 build/obj/sdc.o
 .debug_info    0x0000d393      0xdb2 build/obj/serial.o
 .debug_info    0x0000e145      0xfc7 build/obj/spi.o
 .debug_info    0x0000f10c      0xa1c build/obj/stm32_dma.o
 .debug_info    0x0000fb28      0x4c2 build/obj/hal_lld.o
 .debug_info    0x0000ffea     0x1261 build/obj/adc_lld.o
 .debug_info    0x0001124b      0x5eb build/obj/ext_lld_isr.o
 .debug_info    0x00011836      0x3c7 build/obj/ext_lld.o
 .debug_info    0x00011bfd      0x95a build/obj/gpt_lld.o
 .debug_info    0x00012557      0x9f5 build/obj/icu_lld.o
 .debug_info    0x00012f4c     0x1656 build/obj/sdc_lld.o
 .debug_info    0x000145a2      0x60c build/obj/pal_lld.o
 .debug_info    0x00014bae     0x14c9 build/obj/i2c_lld.o
 .debug_info    0x00016077      0x682 build/obj/rtc_lld.o
 .debug_info    0x000166f9      0xf0a build/obj/spi_lld.o
 .debug_info    0x00017603     0x11c6 build/obj/serial_lld.o
 .debug_info    0x000187c9      0xcb7 build/obj/board.o
 .debug_info    0x00019480      0x41e build/obj/chprintf.o
 .debug_info    0x0001989e      0x675 build/obj/chrtclib.o
 .debug_info    0x00019f13      0x377 build/obj/memstreams.o
 .debug_info    0x0001a28a      0xec8 build/obj/fatfs_diskio.o
 .debug_info    0x0001b152     0x1b4b build/obj/ff.o
 .debug_info    0x0001cc9d       0x54 build/obj/glcdfont.o
 .debug_info    0x0001ccf1      0xc58 build/obj/kb_adc.o
 .debug_info    0x0001d949      0xb78 build/obj/kb_altimeter.o
 .debug_info    0x0001e4c1      0x44f build/obj/kb_buttons.o
 .debug_info    0x0001e910      0x76d build/obj/kb_config.o
 .debug_info    0x0001f07d      0xc92 build/obj/kb_debug.o
 .debug_info    0x0001fd0f      0xc38 build/obj/kb_featureA.o
 .debug_info    0x00020947      0xf90 build/obj/kb_gps.o
 .debug_info    0x000218d7     0x1665 build/obj/kb_menu.o
 .debug_info    0x00022f3c     0x152e build/obj/kb_screen.o
 .debug_info    0x0002446a      0xcd6 build/obj/kb_serial.o
 .debug_info    0x00025140      0x615 build/obj/kb_time.o
 .debug_info    0x00025755      0x169 build/obj/kb_util.o
 .debug_info    0x000258be     0x1250 build/obj/kb_vectornav.o
 .debug_info    0x00026b0e     0x2016 build/obj/kb_writer.o
 .debug_info    0x00028b24     0x1f84 build/obj/main.o
 .debug_info    0x0002aaa8      0xbd6 build/obj/spiEEPROM.o
 .debug_info    0x0002b67e     0x1017 build/obj/ST7565.o

.debug_abbrev   0x00000000     0x73ab
 .debug_abbrev  0x00000000       0xaf build/obj/crt0.o
 .debug_abbrev  0x000000af       0xb1 build/obj/vectors.o
 .debug_abbrev  0x00000160       0x44 build/obj/chcore.o
 .debug_abbrev  0x000001a4      0x1ba build/obj/chcore_v7m.o
 .debug_abbrev  0x0000035e       0xf2 build/obj/nvic.o
 .debug_abbrev  0x00000450      0x18d build/obj/chsys.o
 .debug_abbrev  0x000005dd      0x1ea build/obj/chdebug.o
 .debug_abbrev  0x000007c7      0x126 build/obj/chvt.o
 .debug_abbrev  0x000008ed      0x204 build/obj/chschd.o
 .debug_abbrev  0x00000af1      0x22c build/obj/chthreads.o
 .debug_abbrev  0x00000d1d      0x17d build/obj/chdynamic.o
 .debug_abbrev  0x00000e9a      0x14b build/obj/chregistry.o
 .debug_abbrev  0x00000fe5      0x1d7 build/obj/chsem.o
 .debug_abbrev  0x000011bc      0x1c8 build/obj/chmtx.o
 .debug_abbrev  0x00001384      0x1fe build/obj/chevents.o
 .debug_abbrev  0x00001582      0x1c1 build/obj/chmboxes.o
 .debug_abbrev  0x00001743      0x244 build/obj/chqueues.o
 .debug_abbrev  0x00001987       0xf9 build/obj/chmemcore.o
 .debug_abbrev  0x00001a80      0x181 build/obj/chheap.o
 .debug_abbrev  0x00001c01      0x124 build/obj/chmempools.o
 .debug_abbrev  0x00001d25      0x129 build/obj/hal.o
 .debug_abbrev  0x00001e4e      0x1ff build/obj/adc.o
 .debug_abbrev  0x0000204d      0x160 build/obj/ext.o
 .debug_abbrev  0x000021ad      0x1b2 build/obj/gpt.o
 .debug_abbrev  0x0000235f      0x1de build/obj/i2c.o
 .debug_abbrev  0x0000253d      0x189 build/obj/icu.o
 .debug_abbrev  0x000026c6       0xd5 build/obj/mmcsd.o
 .debug_abbrev  0x0000279b      0x146 build/obj/rtc.o
 .debug_abbrev  0x000028e1      0x252 build/obj/sdc.o
 .debug_abbrev  0x00002b33      0x209 build/obj/serial.o
 .debug_abbrev  0x00002d3c      0x206 build/obj/spi.o
 .debug_abbrev  0x00002f42      0x1ad build/obj/stm32_dma.o
 .debug_abbrev  0x000030ef      0x104 build/obj/hal_lld.o
 .debug_abbrev  0x000031f3      0x26c build/obj/adc_lld.o
 .debug_abbrev  0x0000345f      0x184 build/obj/ext_lld_isr.o
 .debug_abbrev  0x000035e3      0x19e build/obj/ext_lld.o
 .debug_abbrev  0x00003781      0x1bc build/obj/gpt_lld.o
 .debug_abbrev  0x0000393d      0x206 build/obj/icu_lld.o
 .debug_abbrev  0x00003b43      0x2f8 build/obj/sdc_lld.o
 .debug_abbrev  0x00003e3b      0x172 build/obj/pal_lld.o
 .debug_abbrev  0x00003fad      0x2b3 build/obj/i2c_lld.o
 .debug_abbrev  0x00004260      0x1a0 build/obj/rtc_lld.o
 .debug_abbrev  0x00004400      0x257 build/obj/spi_lld.o
 .debug_abbrev  0x00004657      0x236 build/obj/serial_lld.o
 .debug_abbrev  0x0000488d      0x1b6 build/obj/board.o
 .debug_abbrev  0x00004a43      0x155 build/obj/chprintf.o
 .debug_abbrev  0x00004b98      0x149 build/obj/chrtclib.o
 .debug_abbrev  0x00004ce1      0x117 build/obj/memstreams.o
 .debug_abbrev  0x00004df8      0x1cd build/obj/fatfs_diskio.o
 .debug_abbrev  0x00004fc5      0x1a1 build/obj/ff.o
 .debug_abbrev  0x00005166       0x45 build/obj/glcdfont.o
 .debug_abbrev  0x000051ab      0x1ea build/obj/kb_adc.o
 .debug_abbrev  0x00005395      0x1c2 build/obj/kb_altimeter.o
 .debug_abbrev  0x00005557      0x17a build/obj/kb_buttons.o
 .debug_abbrev  0x000056d1      0x1a4 build/obj/kb_config.o
 .debug_abbrev  0x00005875      0x18f build/obj/kb_debug.o
 .debug_abbrev  0x00005a04      0x21e build/obj/kb_featureA.o
 .debug_abbrev  0x00005c22      0x249 build/obj/kb_gps.o
 .debug_abbrev  0x00005e6b      0x2b6 build/obj/kb_menu.o
 .debug_abbrev  0x00006121      0x279 build/obj/kb_screen.o
 .debug_abbrev  0x0000639a      0x1f2 build/obj/kb_serial.o
 .debug_abbrev  0x0000658c      0x1c3 build/obj/kb_time.o
 .debug_abbrev  0x0000674f       0xa3 build/obj/kb_util.o
 .debug_abbrev  0x000067f2      0x220 build/obj/kb_vectornav.o
 .debug_abbrev  0x00006a12      0x31f build/obj/kb_writer.o
 .debug_abbrev  0x00006d31      0x247 build/obj/main.o
 .debug_abbrev  0x00006f78      0x1dc build/obj/spiEEPROM.o
 .debug_abbrev  0x00007154      0x257 build/obj/ST7565.o

.debug_aranges  0x00000000     0x19a8
 .debug_aranges
                0x00000000       0x38 build/obj/crt0.o
 .debug_aranges
                0x00000038       0x20 build/obj/vectors.o
 .debug_aranges
                0x00000058       0x20 build/obj/chcore.o
 .debug_aranges
                0x00000078       0x50 build/obj/chcore_v7m.o
 .debug_aranges
                0x000000c8       0x30 build/obj/nvic.o
 .debug_aranges
                0x000000f8       0x30 build/obj/chsys.o
 .debug_aranges
                0x00000128       0x88 build/obj/chdebug.o
 .debug_aranges
                0x000001b0       0x38 build/obj/chvt.o
 .debug_aranges
                0x000001e8       0x78 build/obj/chschd.o
 .debug_aranges
                0x00000260       0x90 build/obj/chthreads.o
 .debug_aranges
                0x000002f0       0x38 build/obj/chdynamic.o
 .debug_aranges
                0x00000328       0x28 build/obj/chregistry.o
 .debug_aranges
                0x00000350       0x88 build/obj/chsem.o
 .debug_aranges
                0x000003d8       0x70 build/obj/chmtx.o
 .debug_aranges
                0x00000448       0xa0 build/obj/chevents.o
 .debug_aranges
                0x000004e8       0x70 build/obj/chmboxes.o
 .debug_aranges
                0x00000558       0x80 build/obj/chqueues.o
 .debug_aranges
                0x000005d8       0x38 build/obj/chmemcore.o
 .debug_aranges
                0x00000610       0x40 build/obj/chheap.o
 .debug_aranges
                0x00000650       0x48 build/obj/chmempools.o
 .debug_aranges
                0x00000698       0x30 build/obj/hal.o
 .debug_aranges
                0x000006c8       0x70 build/obj/adc.o
 .debug_aranges
                0x00000738       0x50 build/obj/ext.o
 .debug_aranges
                0x00000788       0x78 build/obj/gpt.o
 .debug_aranges
                0x00000800       0x60 build/obj/i2c.o
 .debug_aranges
                0x00000860       0x48 build/obj/icu.o
 .debug_aranges
                0x000008a8       0x28 build/obj/mmcsd.o
 .debug_aranges
                0x000008d0       0x48 build/obj/rtc.o
 .debug_aranges
                0x00000918       0x80 build/obj/sdc.o
 .debug_aranges
                0x00000998       0x88 build/obj/serial.o
 .debug_aranges
                0x00000a20       0x98 build/obj/spi.o
 .debug_aranges
                0x00000ab8       0xb0 build/obj/stm32_dma.o
 .debug_aranges
                0x00000b68       0x30 build/obj/hal_lld.o
 .debug_aranges
                0x00000b98       0x70 build/obj/adc_lld.o
 .debug_aranges
                0x00000c08       0x98 build/obj/ext_lld_isr.o
 .debug_aranges
                0x00000ca0       0x40 build/obj/ext_lld.o
 .debug_aranges
                0x00000ce0       0x58 build/obj/gpt_lld.o
 .debug_aranges
                0x00000d38       0x58 build/obj/icu_lld.o
 .debug_aranges
                0x00000d90       0xc8 build/obj/sdc_lld.o
 .debug_aranges
                0x00000e58       0x30 build/obj/pal_lld.o
 .debug_aranges
                0x00000e88       0x90 build/obj/i2c_lld.o
 .debug_aranges
                0x00000f18       0x58 build/obj/rtc_lld.o
 .debug_aranges
                0x00000f70       0x78 build/obj/spi_lld.o
 .debug_aranges
                0x00000fe8       0x80 build/obj/serial_lld.o
 .debug_aranges
                0x00001068       0x38 build/obj/board.o
 .debug_aranges
                0x000010a0       0x38 build/obj/chprintf.o
 .debug_aranges
                0x000010d8       0x50 build/obj/chrtclib.o
 .debug_aranges
                0x00001128       0x40 build/obj/memstreams.o
 .debug_aranges
                0x00001168       0x48 build/obj/fatfs_diskio.o
 .debug_aranges
                0x000011b0      0x190 build/obj/ff.o
 .debug_aranges
                0x00001340       0x18 build/obj/glcdfont.o
 .debug_aranges
                0x00001358       0x40 build/obj/kb_adc.o
 .debug_aranges
                0x00001398       0x40 build/obj/kb_altimeter.o
 .debug_aranges
                0x000013d8       0x58 build/obj/kb_buttons.o
 .debug_aranges
                0x00001430       0x88 build/obj/kb_config.o
 .debug_aranges
                0x000014b8       0x20 build/obj/kb_debug.o
 .debug_aranges
                0x000014d8       0x48 build/obj/kb_featureA.o
 .debug_aranges
                0x00001520       0x50 build/obj/kb_gps.o
 .debug_aranges
                0x00001570       0xc0 build/obj/kb_menu.o
 .debug_aranges
                0x00001630       0x90 build/obj/kb_screen.o
 .debug_aranges
                0x000016c0       0x50 build/obj/kb_serial.o
 .debug_aranges
                0x00001710       0x48 build/obj/kb_time.o
 .debug_aranges
                0x00001758       0x28 build/obj/kb_util.o
 .debug_aranges
                0x00001780       0x58 build/obj/kb_vectornav.o
 .debug_aranges
                0x000017d8       0xc8 build/obj/kb_writer.o
 .debug_aranges
                0x000018a0       0x48 build/obj/main.o
 .debug_aranges
                0x000018e8       0x50 build/obj/spiEEPROM.o
 .debug_aranges
                0x00001938       0x70 build/obj/ST7565.o

.debug_ranges   0x00000000     0x15a8
 .debug_ranges  0x00000000       0x28 build/obj/crt0.o
 .debug_ranges  0x00000028       0x10 build/obj/vectors.o
 .debug_ranges  0x00000038       0x10 build/obj/chcore.o
 .debug_ranges  0x00000048       0x40 build/obj/chcore_v7m.o
 .debug_ranges  0x00000088       0x20 build/obj/nvic.o
 .debug_ranges  0x000000a8       0x20 build/obj/chsys.o
 .debug_ranges  0x000000c8       0x78 build/obj/chdebug.o
 .debug_ranges  0x00000140       0x28 build/obj/chvt.o
 .debug_ranges  0x00000168       0x68 build/obj/chschd.o
 .debug_ranges  0x000001d0       0x80 build/obj/chthreads.o
 .debug_ranges  0x00000250       0x28 build/obj/chdynamic.o
 .debug_ranges  0x00000278       0x18 build/obj/chregistry.o
 .debug_ranges  0x00000290       0x78 build/obj/chsem.o
 .debug_ranges  0x00000308       0x60 build/obj/chmtx.o
 .debug_ranges  0x00000368       0x90 build/obj/chevents.o
 .debug_ranges  0x000003f8       0x60 build/obj/chmboxes.o
 .debug_ranges  0x00000458       0x70 build/obj/chqueues.o
 .debug_ranges  0x000004c8       0x28 build/obj/chmemcore.o
 .debug_ranges  0x000004f0       0x30 build/obj/chheap.o
 .debug_ranges  0x00000520       0x38 build/obj/chmempools.o
 .debug_ranges  0x00000558       0x20 build/obj/hal.o
 .debug_ranges  0x00000578       0x60 build/obj/adc.o
 .debug_ranges  0x000005d8       0x40 build/obj/ext.o
 .debug_ranges  0x00000618       0x68 build/obj/gpt.o
 .debug_ranges  0x00000680       0x50 build/obj/i2c.o
 .debug_ranges  0x000006d0       0x38 build/obj/icu.o
 .debug_ranges  0x00000708       0x18 build/obj/mmcsd.o
 .debug_ranges  0x00000720       0x38 build/obj/rtc.o
 .debug_ranges  0x00000758       0x88 build/obj/sdc.o
 .debug_ranges  0x000007e0       0x78 build/obj/serial.o
 .debug_ranges  0x00000858       0x88 build/obj/spi.o
 .debug_ranges  0x000008e0       0xa0 build/obj/stm32_dma.o
 .debug_ranges  0x00000980       0x20 build/obj/hal_lld.o
 .debug_ranges  0x000009a0       0x60 build/obj/adc_lld.o
 .debug_ranges  0x00000a00       0x88 build/obj/ext_lld_isr.o
 .debug_ranges  0x00000a88       0x30 build/obj/ext_lld.o
 .debug_ranges  0x00000ab8       0x48 build/obj/gpt_lld.o
 .debug_ranges  0x00000b00       0x48 build/obj/icu_lld.o
 .debug_ranges  0x00000b48       0xb8 build/obj/sdc_lld.o
 .debug_ranges  0x00000c00       0x20 build/obj/pal_lld.o
 .debug_ranges  0x00000c20       0x80 build/obj/i2c_lld.o
 .debug_ranges  0x00000ca0       0x48 build/obj/rtc_lld.o
 .debug_ranges  0x00000ce8       0x68 build/obj/spi_lld.o
 .debug_ranges  0x00000d50       0x70 build/obj/serial_lld.o
 .debug_ranges  0x00000dc0       0x28 build/obj/board.o
 .debug_ranges  0x00000de8       0x28 build/obj/chprintf.o
 .debug_ranges  0x00000e10       0x40 build/obj/chrtclib.o
 .debug_ranges  0x00000e50       0x30 build/obj/memstreams.o
 .debug_ranges  0x00000e80       0x38 build/obj/fatfs_diskio.o
 .debug_ranges  0x00000eb8      0x180 build/obj/ff.o
 .debug_ranges  0x00001038       0x30 build/obj/kb_adc.o
 .debug_ranges  0x00001068       0x30 build/obj/kb_altimeter.o
 .debug_ranges  0x00001098       0x48 build/obj/kb_buttons.o
 .debug_ranges  0x000010e0       0x78 build/obj/kb_config.o
 .debug_ranges  0x00001158       0x10 build/obj/kb_debug.o
 .debug_ranges  0x00001168       0x50 build/obj/kb_featureA.o
 .debug_ranges  0x000011b8       0x40 build/obj/kb_gps.o
 .debug_ranges  0x000011f8       0xb0 build/obj/kb_menu.o
 .debug_ranges  0x000012a8       0x80 build/obj/kb_screen.o
 .debug_ranges  0x00001328       0x40 build/obj/kb_serial.o
 .debug_ranges  0x00001368       0x38 build/obj/kb_time.o
 .debug_ranges  0x000013a0       0x18 build/obj/kb_util.o
 .debug_ranges  0x000013b8       0x48 build/obj/kb_vectornav.o
 .debug_ranges  0x00001400       0xb8 build/obj/kb_writer.o
 .debug_ranges  0x000014b8       0x38 build/obj/main.o
 .debug_ranges  0x000014f0       0x40 build/obj/spiEEPROM.o
 .debug_ranges  0x00001530       0x78 build/obj/ST7565.o

.debug_line     0x00000000     0xda2b
 .debug_line    0x00000000      0x169 build/obj/crt0.o
 .debug_line    0x00000169       0xf3 build/obj/vectors.o
 .debug_line    0x0000025c       0x60 build/obj/chcore.o
 .debug_line    0x000002bc      0x22c build/obj/chcore_v7m.o
 .debug_line    0x000004e8      0x122 build/obj/nvic.o
 .debug_line    0x0000060a      0x1d5 build/obj/chsys.o
 .debug_line    0x000007df      0x2dd build/obj/chdebug.o
 .debug_line    0x00000abc      0x1d3 build/obj/chvt.o
 .debug_line    0x00000c8f      0x308 build/obj/chschd.o
 .debug_line    0x00000f97      0x3ad build/obj/chthreads.o
 .debug_line    0x00001344      0x279 build/obj/chdynamic.o
 .debug_line    0x000015bd      0x218 build/obj/chregistry.o
 .debug_line    0x000017d5      0x3d9 build/obj/chsem.o
 .debug_line    0x00001bae      0x317 build/obj/chmtx.o
 .debug_line    0x00001ec5      0x370 build/obj/chevents.o
 .debug_line    0x00002235      0x2c9 build/obj/chmboxes.o
 .debug_line    0x000024fe      0x3b7 build/obj/chqueues.o
 .debug_line    0x000028b5      0x18f build/obj/chmemcore.o
 .debug_line    0x00002a44      0x2c1 build/obj/chheap.o
 .debug_line    0x00002d05      0x233 build/obj/chmempools.o
 .debug_line    0x00002f38      0x250 build/obj/hal.o
 .debug_line    0x00003188      0x419 build/obj/adc.o
 .debug_line    0x000035a1      0x268 build/obj/ext.o
 .debug_line    0x00003809      0x2db build/obj/gpt.o
 .debug_line    0x00003ae4      0x405 build/obj/i2c.o
 .debug_line    0x00003ee9      0x242 build/obj/icu.o
 .debug_line    0x0000412b      0x148 build/obj/mmcsd.o
 .debug_line    0x00004273      0x282 build/obj/rtc.o
 .debug_line    0x000044f5      0x491 build/obj/sdc.o
 .debug_line    0x00004986      0x402 build/obj/serial.o
 .debug_line    0x00004d88      0x5c6 build/obj/spi.o
 .debug_line    0x0000534e      0x371 build/obj/stm32_dma.o
 .debug_line    0x000056bf      0x1fb build/obj/hal_lld.o
 .debug_line    0x000058ba      0x491 build/obj/adc_lld.o
 .debug_line    0x00005d4b      0x300 build/obj/ext_lld_isr.o
 .debug_line    0x0000604b      0x213 build/obj/ext_lld.o
 .debug_line    0x0000625e      0x259 build/obj/gpt_lld.o
 .debug_line    0x000064b7      0x292 build/obj/icu_lld.o
 .debug_line    0x00006749      0x4e5 build/obj/sdc_lld.o
 .debug_line    0x00006c2e      0x1c8 build/obj/pal_lld.o
 .debug_line    0x00006df6      0x5cb build/obj/i2c_lld.o
 .debug_line    0x000073c1      0x2c4 build/obj/rtc_lld.o
 .debug_line    0x00007685      0x45e build/obj/spi_lld.o
 .debug_line    0x00007ae3      0x3f8 build/obj/serial_lld.o
 .debug_line    0x00007edb      0x2a1 build/obj/board.o
 .debug_line    0x0000817c      0x2dc build/obj/chprintf.o
 .debug_line    0x00008458      0x33c build/obj/chrtclib.o
 .debug_line    0x00008794      0x1eb build/obj/memstreams.o
 .debug_line    0x0000897f      0x325 build/obj/fatfs_diskio.o
 .debug_line    0x00008ca4      0xea4 build/obj/ff.o
 .debug_line    0x00009b48       0x31 build/obj/glcdfont.o
 .debug_line    0x00009b79      0x308 build/obj/kb_adc.o
 .debug_line    0x00009e81      0x2c0 build/obj/kb_altimeter.o
 .debug_line    0x0000a141      0x256 build/obj/kb_buttons.o
 .debug_line    0x0000a397      0x2a2 build/obj/kb_config.o
 .debug_line    0x0000a639      0x2e5 build/obj/kb_debug.o
 .debug_line    0x0000a91e      0x37e build/obj/kb_featureA.o
 .debug_line    0x0000ac9c      0x3d3 build/obj/kb_gps.o
 .debug_line    0x0000b06f      0x57d build/obj/kb_menu.o
 .debug_line    0x0000b5ec      0x527 build/obj/kb_screen.o
 .debug_line    0x0000bb13      0x3c5 build/obj/kb_serial.o
 .debug_line    0x0000bed8      0x26e build/obj/kb_time.o
 .debug_line    0x0000c146      0x139 build/obj/kb_util.o
 .debug_line    0x0000c27f      0x415 build/obj/kb_vectornav.o
 .debug_line    0x0000c694      0x69f build/obj/kb_writer.o
 .debug_line    0x0000cd33      0x533 build/obj/main.o
 .debug_line    0x0000d266      0x32b build/obj/spiEEPROM.o
 .debug_line    0x0000d591      0x49a build/obj/ST7565.o

.debug_str      0x00000000     0x5580
 .debug_str     0x00000000      0x1fa build/obj/crt0.o
                                0x234 (size before relaxing)
 .debug_str     0x000001fa      0x14d build/obj/vectors.o
                                0x264 (size before relaxing)
 .debug_str     0x00000347       0x35 build/obj/chcore.o
                                0x137 (size before relaxing)
 .debug_str     0x0000037c      0x2dd build/obj/chcore_v7m.o
                                0x41c (size before relaxing)
 .debug_str     0x00000659       0xc3 build/obj/nvic.o
                                0x236 (size before relaxing)
 .debug_str     0x0000071c      0x1d2 build/obj/chsys.o
                                0x4aa (size before relaxing)
 .debug_str     0x000008ee      0x1ab build/obj/chdebug.o
                                0x4d7 (size before relaxing)
 .debug_str     0x00000a99       0x5d build/obj/chvt.o
                                0x1d3 (size before relaxing)
 .debug_str     0x00000af6       0xff build/obj/chschd.o
                                0x417 (size before relaxing)
 .debug_str     0x00000bf5      0x110 build/obj/chthreads.o
                                0x44d (size before relaxing)
 .debug_str     0x00000d05       0xf4 build/obj/chdynamic.o
                                0x3be (size before relaxing)
 .debug_str     0x00000df9       0x4a build/obj/chregistry.o
                                0x419 (size before relaxing)
 .debug_str     0x00000e43       0xd0 build/obj/chsem.o
                                0x3cf (size before relaxing)
 .debug_str     0x00000f13       0x92 build/obj/chmtx.o
                                0x385 (size before relaxing)
 .debug_str     0x00000fa5      0x1c1 build/obj/chevents.o
                                0x4a1 (size before relaxing)
 .debug_str     0x00001166       0xea build/obj/chmboxes.o
                                0x39e (size before relaxing)
 .debug_str     0x00001250      0x121 build/obj/chqueues.o
                                0x427 (size before relaxing)
 .debug_str     0x00001371       0x83 build/obj/chmemcore.o
                                0x1a2 (size before relaxing)
 .debug_str     0x000013f4       0x72 build/obj/chheap.o
                                0x36d (size before relaxing)
 .debug_str     0x00001466       0x74 build/obj/chmempools.o
                                0x1f0 (size before relaxing)
 .debug_str     0x000014da      0x135 build/obj/hal.o
                                0x26a (size before relaxing)
 .debug_str     0x0000160f      0x2a1 build/obj/adc.o
                                0x5c7 (size before relaxing)
 .debug_str     0x000018b0       0xff build/obj/ext.o
                                0x23a (size before relaxing)
 .debug_str     0x000019af      0x212 build/obj/gpt.o
                                0x34e (size before relaxing)
 .debug_str     0x00001bc1      0x276 build/obj/i2c.o
                                0x5a6 (size before relaxing)
 .debug_str     0x00001e37      0x15e build/obj/icu.o
                                0x35f (size before relaxing)
 .debug_str     0x00001f95       0x63 build/obj/mmcsd.o
                                0x18e (size before relaxing)
 .debug_str     0x00001ff8      0x1ad build/obj/rtc.o
                                0x2e4 (size before relaxing)
 .debug_str     0x000021a5      0x295 build/obj/sdc.o
                                0x5f5 (size before relaxing)
 .debug_str     0x0000243a      0x107 build/obj/serial.o
                                0x4f1 (size before relaxing)
 .debug_str     0x00002541      0x1c0 build/obj/spi.o
                                0x5bb (size before relaxing)
 .debug_str     0x00002701      0x735 build/obj/stm32_dma.o
                                0x925 (size before relaxing)
 .debug_str     0x00002e36       0xcc build/obj/hal_lld.o
                                0x33d (size before relaxing)
 .debug_str     0x00002f02      0x13b build/obj/adc_lld.o
                                0xc35 (size before relaxing)
 .debug_str     0x0000303d      0x11a build/obj/ext_lld_isr.o
                                0x7c1 (size before relaxing)
 .debug_str     0x00003157       0xb2 build/obj/ext_lld.o
                                0x291 (size before relaxing)
 .debug_str     0x00003209       0xbb build/obj/gpt_lld.o
                                0x945 (size before relaxing)
 .debug_str     0x000032c4       0xb5 build/obj/icu_lld.o
                                0x9b7 (size before relaxing)
 .debug_str     0x00003379      0x1f5 build/obj/sdc_lld.o
                                0xd4d (size before relaxing)
 .debug_str     0x0000356e       0x8d build/obj/pal_lld.o
                                0x396 (size before relaxing)
 .debug_str     0x000035fb      0x19a build/obj/i2c_lld.o
                                0xd10 (size before relaxing)
 .debug_str     0x00003795       0xf1 build/obj/rtc_lld.o
                                0x381 (size before relaxing)
 .debug_str     0x00003886      0x124 build/obj/spi_lld.o
                                0x6ba (size before relaxing)
 .debug_str     0x000039aa       0xb5 build/obj/serial_lld.o
                                0xaf5 (size before relaxing)
 .debug_str     0x00003a5f       0x4e build/obj/board.o
                                0x60a (size before relaxing)
 .debug_str     0x00003aad       0xeb build/obj/chprintf.o
                                0x233 (size before relaxing)
 .debug_str     0x00003b98       0xe9 build/obj/chrtclib.o
                                0x351 (size before relaxing)
 .debug_str     0x00003c81       0x5a build/obj/memstreams.o
                                0x197 (size before relaxing)
 .debug_str     0x00003cdb       0xb4 build/obj/fatfs_diskio.o
                                0x6a3 (size before relaxing)
 .debug_str     0x00003d8f      0x4aa build/obj/ff.o
                                0x650 (size before relaxing)
 .debug_str     0x00004239       0x1c build/obj/glcdfont.o
                                 0x9d (size before relaxing)
 .debug_str     0x00004255       0x84 build/obj/kb_adc.o
                                0x5a5 (size before relaxing)
 .debug_str     0x000042d9       0x97 build/obj/kb_altimeter.o
                                0x5d3 (size before relaxing)
 .debug_str     0x00004370       0x87 build/obj/kb_buttons.o
                                0x2af (size before relaxing)
 .debug_str     0x000043f7       0xcc build/obj/kb_config.o
                                0x38a (size before relaxing)
 .debug_str     0x000044c3       0xa2 build/obj/kb_debug.o
                                0x564 (size before relaxing)
 .debug_str     0x00004565       0xd2 build/obj/kb_featureA.o
                                0x59b (size before relaxing)
 .debug_str     0x00004637      0x14b build/obj/kb_gps.o
                                0x6a2 (size before relaxing)
 .debug_str     0x00004782      0x24f build/obj/kb_menu.o
                                0x9dd (size before relaxing)
 .debug_str     0x000049d1      0x158 build/obj/kb_screen.o
                                0x8de (size before relaxing)
 .debug_str     0x00004b29       0xd0 build/obj/kb_serial.o
                                0x586 (size before relaxing)
 .debug_str     0x00004bf9      0x209 build/obj/kb_time.o
                                0x44e (size before relaxing)
 .debug_str     0x00004e02       0x3a build/obj/kb_util.o
                                0x162 (size before relaxing)
 .debug_str     0x00004e3c      0x157 build/obj/kb_vectornav.o
                                0x7c8 (size before relaxing)
 .debug_str     0x00004f93      0x305 build/obj/kb_writer.o
                                0xe81 (size before relaxing)
 .debug_str     0x00005298       0xff build/obj/main.o
                                0xd0c (size before relaxing)
 .debug_str     0x00005397       0xa1 build/obj/spiEEPROM.o
                                0x569 (size before relaxing)
 .debug_str     0x00005438      0x148 build/obj/ST7565.o
                                0x645 (size before relaxing)

.debug_frame    0x00000000     0x4798
 .debug_frame   0x00000000       0x50 build/obj/crt0.o
 .debug_frame   0x00000050       0x20 build/obj/vectors.o
 .debug_frame   0x00000070       0x20 build/obj/chcore.o
 .debug_frame   0x00000090       0xbc build/obj/chcore_v7m.o
 .debug_frame   0x0000014c       0x64 build/obj/nvic.o
 .debug_frame   0x000001b0       0x5c build/obj/chsys.o
 .debug_frame   0x0000020c      0x184 build/obj/chdebug.o
 .debug_frame   0x00000390       0x6c build/obj/chvt.o
 .debug_frame   0x000003fc      0x144 build/obj/chschd.o
 .debug_frame   0x00000540      0x194 build/obj/chthreads.o
 .debug_frame   0x000006d4       0x80 build/obj/chdynamic.o
 .debug_frame   0x00000754       0x48 build/obj/chregistry.o
 .debug_frame   0x0000079c      0x180 build/obj/chsem.o
 .debug_frame   0x0000091c      0x12c build/obj/chmtx.o
 .debug_frame   0x00000a48      0x1e4 build/obj/chevents.o
 .debug_frame   0x00000c2c      0x144 build/obj/chmboxes.o
 .debug_frame   0x00000d70      0x15c build/obj/chqueues.o
 .debug_frame   0x00000ecc       0x68 build/obj/chmemcore.o
 .debug_frame   0x00000f34       0x9c build/obj/chheap.o
 .debug_frame   0x00000fd0       0xb8 build/obj/chmempools.o
 .debug_frame   0x00001088       0x5c build/obj/hal.o
 .debug_frame   0x000010e4      0x144 build/obj/adc.o
 .debug_frame   0x00001228       0xcc build/obj/ext.o
 .debug_frame   0x000012f4      0x158 build/obj/gpt.o
 .debug_frame   0x0000144c      0x10c build/obj/i2c.o
 .debug_frame   0x00001558       0xb0 build/obj/icu.o
 .debug_frame   0x00001608       0x48 build/obj/mmcsd.o
 .debug_frame   0x00001650       0xb8 build/obj/rtc.o
 .debug_frame   0x00001708      0x174 build/obj/sdc.o
 .debug_frame   0x0000187c      0x198 build/obj/serial.o
 .debug_frame   0x00001a14      0x1d0 build/obj/spi.o
 .debug_frame   0x00001be4      0x21c build/obj/stm32_dma.o
 .debug_frame   0x00001e00       0x4c build/obj/hal_lld.o
 .debug_frame   0x00001e4c      0x104 build/obj/adc_lld.o
 .debug_frame   0x00001f50      0x1d0 build/obj/ext_lld_isr.o
 .debug_frame   0x00002120       0x8c build/obj/ext_lld.o
 .debug_frame   0x000021ac       0xd8 build/obj/gpt_lld.o
 .debug_frame   0x00002284       0xe0 build/obj/icu_lld.o
 .debug_frame   0x00002364      0x240 build/obj/sdc_lld.o
 .debug_frame   0x000025a4       0x54 build/obj/pal_lld.o
 .debug_frame   0x000025f8      0x1a4 build/obj/i2c_lld.o
 .debug_frame   0x0000279c       0xc0 build/obj/rtc_lld.o
 .debug_frame   0x0000285c      0x128 build/obj/spi_lld.o
 .debug_frame   0x00002984      0x154 build/obj/serial_lld.o
 .debug_frame   0x00002ad8       0x64 build/obj/board.o
 .debug_frame   0x00002b3c       0x88 build/obj/chprintf.o
 .debug_frame   0x00002bc4       0xc4 build/obj/chrtclib.o
 .debug_frame   0x00002c88       0x84 build/obj/memstreams.o
 .debug_frame   0x00002d0c       0xb0 build/obj/fatfs_diskio.o
 .debug_frame   0x00002dbc      0x4ec build/obj/ff.o
 .debug_frame   0x000032a8       0x94 build/obj/kb_adc.o
 .debug_frame   0x0000333c       0x9c build/obj/kb_altimeter.o
 .debug_frame   0x000033d8       0xc0 build/obj/kb_buttons.o
 .debug_frame   0x00003498      0x184 build/obj/kb_config.o
 .debug_frame   0x0000361c       0x2c build/obj/kb_debug.o
 .debug_frame   0x00003648       0x98 build/obj/kb_featureA.o
 .debug_frame   0x000036e0       0xe4 build/obj/kb_gps.o
 .debug_frame   0x000037c4      0x230 build/obj/kb_menu.o
 .debug_frame   0x000039f4      0x164 build/obj/kb_screen.o
 .debug_frame   0x00003b58       0xbc build/obj/kb_serial.o
 .debug_frame   0x00003c14       0x98 build/obj/kb_time.o
 .debug_frame   0x00003cac       0x38 build/obj/kb_util.o
 .debug_frame   0x00003ce4       0xe8 build/obj/kb_vectornav.o
 .debug_frame   0x00003dcc      0x270 build/obj/kb_writer.o
 .debug_frame   0x0000403c       0xb0 build/obj/main.o
 .debug_frame   0x000040ec       0xcc build/obj/spiEEPROM.o
 .debug_frame   0x000041b8      0x13c build/obj/ST7565.o
 .debug_frame   0x000042f4       0x2c c:/chibistudio/tools/gnu tools arm embedded/4.7 2013q1/bin/../lib/gcc/arm-none-eabi/4.7.3/../../../../arm-none-eabi/lib/armv7e-m\libm.a(lib_a-s_cos.o)
 .debug_frame   0x00004320       0x2c c:/chibistudio/tools/gnu tools arm embedded/4.7 2013q1/bin/../lib/gcc/arm-none-eabi/4.7.3/../../../../arm-none-eabi/lib/armv7e-m\libm.a(lib_a-s_sin.o)
 .debug_frame   0x0000434c       0x20 c:/chibistudio/tools/gnu tools arm embedded/4.7 2013q1/bin/../lib/gcc/arm-none-eabi/4.7.3/../../../../arm-none-eabi/lib/armv7e-m\libm.a(lib_a-w_atan2.o)
 .debug_frame   0x0000436c       0x38 c:/chibistudio/tools/gnu tools arm embedded/4.7 2013q1/bin/../lib/gcc/arm-none-eabi/4.7.3/../../../../arm-none-eabi/lib/armv7e-m\libm.a(lib_a-w_pow.o)
 .debug_frame   0x000043a4       0x38 c:/chibistudio/tools/gnu tools arm embedded/4.7 2013q1/bin/../lib/gcc/arm-none-eabi/4.7.3/../../../../arm-none-eabi/lib/armv7e-m\libm.a(lib_a-w_sqrt.o)
 .debug_frame   0x000043dc       0x38 c:/chibistudio/tools/gnu tools arm embedded/4.7 2013q1/bin/../lib/gcc/arm-none-eabi/4.7.3/../../../../arm-none-eabi/lib/armv7e-m\libm.a(lib_a-e_atan2.o)
 .debug_frame   0x00004414       0x38 c:/chibistudio/tools/gnu tools arm embedded/4.7 2013q1/bin/../lib/gcc/arm-none-eabi/4.7.3/../../../../arm-none-eabi/lib/armv7e-m\libm.a(lib_a-e_pow.o)
 .debug_frame   0x0000444c       0x38 c:/chibistudio/tools/gnu tools arm embedded/4.7 2013q1/bin/../lib/gcc/arm-none-eabi/4.7.3/../../../../arm-none-eabi/lib/armv7e-m\libm.a(lib_a-e_rem_pio2.o)
 .debug_frame   0x00004484       0x34 c:/chibistudio/tools/gnu tools arm embedded/4.7 2013q1/bin/../lib/gcc/arm-none-eabi/4.7.3/../../../../arm-none-eabi/lib/armv7e-m\libm.a(lib_a-e_sqrt.o)
 .debug_frame   0x000044b8       0x38 c:/chibistudio/tools/gnu tools arm embedded/4.7 2013q1/bin/../lib/gcc/arm-none-eabi/4.7.3/../../../../arm-none-eabi/lib/armv7e-m\libm.a(lib_a-k_cos.o)
 .debug_frame   0x000044f0       0x3c c:/chibistudio/tools/gnu tools arm embedded/4.7 2013q1/bin/../lib/gcc/arm-none-eabi/4.7.3/../../../../arm-none-eabi/lib/armv7e-m\libm.a(lib_a-k_rem_pio2.o)
 .debug_frame   0x0000452c       0x38 c:/chibistudio/tools/gnu tools arm embedded/4.7 2013q1/bin/../lib/gcc/arm-none-eabi/4.7.3/../../../../arm-none-eabi/lib/armv7e-m\libm.a(lib_a-k_sin.o)
 .debug_frame   0x00004564       0x38 c:/chibistudio/tools/gnu tools arm embedded/4.7 2013q1/bin/../lib/gcc/arm-none-eabi/4.7.3/../../../../arm-none-eabi/lib/armv7e-m\libm.a(lib_a-s_atan.o)
 .debug_frame   0x0000459c       0x20 c:/chibistudio/tools/gnu tools arm embedded/4.7 2013q1/bin/../lib/gcc/arm-none-eabi/4.7.3/../../../../arm-none-eabi/lib/armv7e-m\libm.a(lib_a-s_fabs.o)
 .debug_frame   0x000045bc       0x20 c:/chibistudio/tools/gnu tools arm embedded/4.7 2013q1/bin/../lib/gcc/arm-none-eabi/4.7.3/../../../../arm-none-eabi/lib/armv7e-m\libm.a(lib_a-s_finite.o)
 .debug_frame   0x000045dc       0x34 c:/chibistudio/tools/gnu tools arm embedded/4.7 2013q1/bin/../lib/gcc/arm-none-eabi/4.7.3/../../../../arm-none-eabi/lib/armv7e-m\libm.a(lib_a-s_floor.o)
 .debug_frame   0x00004610       0x20 c:/chibistudio/tools/gnu tools arm embedded/4.7 2013q1/bin/../lib/gcc/arm-none-eabi/4.7.3/../../../../arm-none-eabi/lib/armv7e-m\libm.a(lib_a-s_fpclassify.o)
 .debug_frame   0x00004630       0x20 c:/chibistudio/tools/gnu tools arm embedded/4.7 2013q1/bin/../lib/gcc/arm-none-eabi/4.7.3/../../../../arm-none-eabi/lib/armv7e-m\libm.a(lib_a-s_matherr.o)
 .debug_frame   0x00004650       0x20 c:/chibistudio/tools/gnu tools arm embedded/4.7 2013q1/bin/../lib/gcc/arm-none-eabi/4.7.3/../../../../arm-none-eabi/lib/armv7e-m\libm.a(lib_a-s_nan.o)
 .debug_frame   0x00004670       0x34 c:/chibistudio/tools/gnu tools arm embedded/4.7 2013q1/bin/../lib/gcc/arm-none-eabi/4.7.3/../../../../arm-none-eabi/lib/armv7e-m\libm.a(lib_a-s_rint.o)
 .debug_frame   0x000046a4       0x30 c:/chibistudio/tools/gnu tools arm embedded/4.7 2013q1/bin/../lib/gcc/arm-none-eabi/4.7.3/../../../../arm-none-eabi/lib/armv7e-m\libm.a(lib_a-s_scalbn.o)
 .debug_frame   0x000046d4       0x28 c:/chibistudio/tools/gnu tools arm embedded/4.7 2013q1/bin/../lib/gcc/arm-none-eabi/4.7.3/../../../../arm-none-eabi/lib/armv7e-m\libm.a(lib_a-s_copysign.o)
 .debug_frame   0x000046fc       0x20 c:/chibistudio/tools/gnu tools arm embedded/4.7 2013q1/bin/../lib/gcc/arm-none-eabi/4.7.3/../../../../arm-none-eabi/lib/armv7e-m\libc.a(lib_a-errno.o)
 .debug_frame   0x0000471c       0x30 c:/chibistudio/tools/gnu tools arm embedded/4.7 2013q1/bin/../lib/gcc/arm-none-eabi/4.7.3/../../../../arm-none-eabi/lib/armv7e-m\libc.a(lib_a-memcpy.o)
 .debug_frame   0x0000474c       0x2c c:/chibistudio/tools/gnu tools arm embedded/4.7 2013q1/bin/../lib/gcc/arm-none-eabi/4.7.3/../../../../arm-none-eabi/lib/armv7e-m\libc.a(lib_a-memset.o)
 .debug_frame   0x00004778       0x20 c:/chibistudio/tools/gnu tools arm embedded/4.7 2013q1/bin/../lib/gcc/arm-none-eabi/4.7.3/../../../../arm-none-eabi/lib/armv7e-m\libc.a(lib_a-strcpy.o)

.debug_loc      0x00000000     0x5b81
 .debug_loc     0x00000000       0xb8 build/obj/chcore_v7m.o
 .debug_loc     0x000000b8       0x84 build/obj/nvic.o
 .debug_loc     0x0000013c       0x78 build/obj/chsys.o
 .debug_loc     0x000001b4      0x1ac build/obj/chdebug.o
 .debug_loc     0x00000360       0x78 build/obj/chvt.o
 .debug_loc     0x000003d8      0x1b4 build/obj/chschd.o
 .debug_loc     0x0000058c      0x258 build/obj/chthreads.o
 .debug_loc     0x000007e4       0xb0 build/obj/chdynamic.o
 .debug_loc     0x00000894       0x58 build/obj/chregistry.o
 .debug_loc     0x000008ec      0x244 build/obj/chsem.o
 .debug_loc     0x00000b30      0x1c0 build/obj/chmtx.o
 .debug_loc     0x00000cf0      0x2e0 build/obj/chevents.o
 .debug_loc     0x00000fd0      0x1e4 build/obj/chmboxes.o
 .debug_loc     0x000011b4      0x20c build/obj/chqueues.o
 .debug_loc     0x000013c0       0x58 build/obj/chmemcore.o
 .debug_loc     0x00001418       0xd0 build/obj/chheap.o
 .debug_loc     0x000014e8      0x108 build/obj/chmempools.o
 .debug_loc     0x000015f0       0x6c build/obj/hal.o
 .debug_loc     0x0000165c      0x1d8 build/obj/adc.o
 .debug_loc     0x00001834      0x11c build/obj/ext.o
 .debug_loc     0x00001950      0x1f8 build/obj/gpt.o
 .debug_loc     0x00001b48      0x180 build/obj/i2c.o
 .debug_loc     0x00001cc8       0xf0 build/obj/icu.o
 .debug_loc     0x00001db8       0x58 build/obj/mmcsd.o
 .debug_loc     0x00001e10       0xfc build/obj/rtc.o
 .debug_loc     0x00001f0c      0x224 build/obj/sdc.o
 .debug_loc     0x00002130      0x25c build/obj/serial.o
 .debug_loc     0x0000238c      0x2b4 build/obj/spi.o
 .debug_loc     0x00002640      0x338 build/obj/stm32_dma.o
 .debug_loc     0x00002978       0x20 build/obj/hal_lld.o
 .debug_loc     0x00002998      0x110 build/obj/adc_lld.o
 .debug_loc     0x00002aa8      0x218 build/obj/ext_lld_isr.o
 .debug_loc     0x00002cc0       0xb8 build/obj/ext_lld.o
 .debug_loc     0x00002d78      0x124 build/obj/gpt_lld.o
 .debug_loc     0x00002e9c      0x124 build/obj/icu_lld.o
 .debug_loc     0x00002fc0      0x35c build/obj/sdc_lld.o
 .debug_loc     0x0000331c       0x6c build/obj/pal_lld.o
 .debug_loc     0x00003388      0x264 build/obj/i2c_lld.o
 .debug_loc     0x000035ec      0x118 build/obj/rtc_lld.o
 .debug_loc     0x00003704      0x1b0 build/obj/spi_lld.o
 .debug_loc     0x000038b4      0x1d0 build/obj/serial_lld.o
 .debug_loc     0x00003a84       0x60 build/obj/board.o
 .debug_loc     0x00003ae4       0xb1 build/obj/chprintf.o
 .debug_loc     0x00003b95      0x11f build/obj/chrtclib.o
 .debug_loc     0x00003cb4       0xb8 build/obj/memstreams.o
 .debug_loc     0x00003d6c       0xf0 build/obj/fatfs_diskio.o
 .debug_loc     0x00003e5c      0x7b4 build/obj/ff.o
 .debug_loc     0x00004610       0xb8 build/obj/kb_adc.o
 .debug_loc     0x000046c8       0xd0 build/obj/kb_altimeter.o
 .debug_loc     0x00004798       0xb0 build/obj/kb_buttons.o
 .debug_loc     0x00004848      0x20c build/obj/kb_config.o
 .debug_loc     0x00004a54       0x2c build/obj/kb_debug.o
 .debug_loc     0x00004a80       0x98 build/obj/kb_featureA.o
 .debug_loc     0x00004b18       0xfd build/obj/kb_gps.o
 .debug_loc     0x00004c15      0x311 build/obj/kb_menu.o
 .debug_loc     0x00004f26      0x1e5 build/obj/kb_screen.o
 .debug_loc     0x0000510b      0x104 build/obj/kb_serial.o
 .debug_loc     0x0000520f       0x98 build/obj/kb_time.o
 .debug_loc     0x000052a7       0x40 build/obj/kb_util.o
 .debug_loc     0x000052e7      0x155 build/obj/kb_vectornav.o
 .debug_loc     0x0000543c      0x36d build/obj/kb_writer.o
 .debug_loc     0x000057a9       0xd8 build/obj/main.o
 .debug_loc     0x00005881      0x128 build/obj/spiEEPROM.o
 .debug_loc     0x000059a9      0x1d8 build/obj/ST7565.o

Cross Reference Table

Symbol                                            File
ADCD1                                             build/obj/adc_lld.o
                                                  build/obj/kb_adc.o
ADCD2                                             build/obj/adc_lld.o
ADCD3                                             build/obj/adc_lld.o
BusFaultVector                                    build/obj/vectors.o
DebugMonitorVector                                build/obj/vectors.o
EXTD1                                             build/obj/ext_lld.o
                                                  build/obj/main.o
                                                  build/obj/ext_lld_isr.o
GPTD14                                            build/obj/gpt_lld.o
                                                  build/obj/main.o
HardFaultVector                                   build/obj/kb_debug_asm.o
I2CD2                                             build/obj/i2c_lld.o
                                                  build/obj/main.o
                                                  build/obj/kb_altimeter.o
ICUD1                                             build/obj/icu_lld.o
MemManageVector                                   build/obj/vectors.o
NMIVector                                         build/obj/vectors.o
PendSVVector                                      build/obj/vectors.o
RTCD1                                             build/obj/rtc_lld.o
                                                  build/obj/kb_writer.o
                                                  build/obj/kb_screen.o
                                                  build/obj/kb_menu.o
                                                  build/obj/fatfs_diskio.o
ResetHandler                                      build/obj/crt0.o
                                                  build/obj/vectors.o
SD1                                               build/obj/serial_lld.o
                                                  build/obj/kb_serial.o
                                                  build/obj/kb_featureA.o
                                                  build/obj/kb_debug.o
SD2                                               build/obj/serial_lld.o
                                                  build/obj/main.o
                                                  build/obj/kb_serial.o
SD6                                               build/obj/serial_lld.o
                                                  build/obj/kb_gps.o
SDCD1                                             build/obj/sdc_lld.o
                                                  build/obj/main.o
                                                  build/obj/kb_writer.o
                                                  build/obj/fatfs_diskio.o
SPID1                                             build/obj/spi_lld.o
                                                  build/obj/main.o
SPID2                                             build/obj/spi_lld.o
                                                  build/obj/main.o
ST7565D1                                          build/obj/ST7565.o
                                                  build/obj/main.o
                                                  build/obj/kb_screen.o
                                                  build/obj/kb_menu.o
ST7565font                                        build/obj/glcdfont.o
                                                  build/obj/ST7565.o
SVCallVector                                      build/obj/chcore_v7m.o
                                                  build/obj/vectors.o
SysTickVector                                     build/obj/chcore_v7m.o
                                                  build/obj/vectors.o
TAMPER_STAMP_IRQHandler                           build/obj/ext_lld_isr.o
UsageFaultVector                                  build/obj/vectors.o
VND1                                              build/obj/kb_vectornav.o
                                                  build/obj/main.o
Vector100                                         build/obj/vectors.o
Vector104                                         build/obj/sdc_lld.o
                                                  build/obj/vectors.o
Vector108                                         build/obj/vectors.o
Vector10C                                         build/obj/vectors.o
Vector110                                         build/obj/vectors.o
Vector114                                         build/obj/vectors.o
Vector118                                         build/obj/vectors.o
Vector11C                                         build/obj/vectors.o
Vector120                                         build/obj/stm32_dma.o
                                                  build/obj/vectors.o
Vector124                                         build/obj/stm32_dma.o
                                                  build/obj/vectors.o
Vector128                                         build/obj/stm32_dma.o
                                                  build/obj/vectors.o
Vector12C                                         build/obj/stm32_dma.o
                                                  build/obj/vectors.o
Vector130                                         build/obj/stm32_dma.o
                                                  build/obj/vectors.o
Vector134                                         build/obj/vectors.o
Vector138                                         build/obj/ext_lld_isr.o
                                                  build/obj/vectors.o
Vector13C                                         build/obj/vectors.o
Vector140                                         build/obj/vectors.o
Vector144                                         build/obj/vectors.o
Vector148                                         build/obj/vectors.o
Vector14C                                         build/obj/vectors.o
Vector150                                         build/obj/stm32_dma.o
                                                  build/obj/vectors.o
Vector154                                         build/obj/stm32_dma.o
                                                  build/obj/vectors.o
Vector158                                         build/obj/stm32_dma.o
                                                  build/obj/vectors.o
Vector15C                                         build/obj/serial_lld.o
                                                  build/obj/vectors.o
Vector160                                         build/obj/vectors.o
Vector164                                         build/obj/vectors.o
Vector168                                         build/obj/vectors.o
Vector16C                                         build/obj/vectors.o
Vector170                                         build/obj/ext_lld_isr.o
                                                  build/obj/vectors.o
Vector174                                         build/obj/vectors.o
Vector178                                         build/obj/vectors.o
Vector17C                                         build/obj/vectors.o
Vector180                                         build/obj/vectors.o
Vector184                                         build/obj/vectors.o
Vector1C                                          build/obj/vectors.o
Vector20                                          build/obj/vectors.o
Vector24                                          build/obj/vectors.o
Vector28                                          build/obj/vectors.o
Vector34                                          build/obj/vectors.o
Vector40                                          build/obj/vectors.o
Vector44                                          build/obj/ext_lld_isr.o
                                                  build/obj/vectors.o
Vector48                                          build/obj/vectors.o
Vector4C                                          build/obj/ext_lld_isr.o
                                                  build/obj/vectors.o
Vector50                                          build/obj/vectors.o
Vector54                                          build/obj/vectors.o
Vector58                                          build/obj/ext_lld_isr.o
                                                  build/obj/vectors.o
Vector5C                                          build/obj/ext_lld_isr.o
                                                  build/obj/vectors.o
Vector60                                          build/obj/ext_lld_isr.o
                                                  build/obj/vectors.o
Vector64                                          build/obj/ext_lld_isr.o
                                                  build/obj/vectors.o
Vector68                                          build/obj/ext_lld_isr.o
                                                  build/obj/vectors.o
Vector6C                                          build/obj/stm32_dma.o
                                                  build/obj/vectors.o
Vector70                                          build/obj/stm32_dma.o
                                                  build/obj/vectors.o
Vector74                                          build/obj/stm32_dma.o
                                                  build/obj/vectors.o
Vector78                                          build/obj/stm32_dma.o
                                                  build/obj/vectors.o
Vector7C                                          build/obj/stm32_dma.o
                                                  build/obj/vectors.o
Vector80                                          build/obj/stm32_dma.o
                                                  build/obj/vectors.o
Vector84                                          build/obj/stm32_dma.o
                                                  build/obj/vectors.o
Vector88                                          build/obj/adc_lld.o
                                                  build/obj/vectors.o
Vector8C                                          build/obj/vectors.o
Vector90                                          build/obj/vectors.o
Vector94                                          build/obj/vectors.o
Vector98                                          build/obj/vectors.o
Vector9C                                          build/obj/ext_lld_isr.o
                                                  build/obj/vectors.o
VectorA0                                          build/obj/vectors.o
VectorA4                                          build/obj/icu_lld.o
                                                  build/obj/vectors.o
VectorA8                                          build/obj/vectors.o
VectorAC                                          build/obj/icu_lld.o
                                                  build/obj/vectors.o
VectorB0                                          build/obj/vectors.o
VectorB4                                          build/obj/vectors.o
VectorB8                                          build/obj/vectors.o
VectorBC                                          build/obj/vectors.o
VectorC0                                          build/obj/vectors.o
VectorC4                                          build/obj/i2c_lld.o
                                                  build/obj/vectors.o
VectorC8                                          build/obj/i2c_lld.o
                                                  build/obj/vectors.o
VectorCC                                          build/obj/vectors.o
VectorD0                                          build/obj/vectors.o
VectorD4                                          build/obj/serial_lld.o
                                                  build/obj/vectors.o
VectorD8                                          build/obj/serial_lld.o
                                                  build/obj/vectors.o
VectorDC                                          build/obj/vectors.o
VectorE0                                          build/obj/ext_lld_isr.o
                                                  build/obj/vectors.o
VectorE4                                          build/obj/ext_lld_isr.o
                                                  build/obj/vectors.o
VectorE8                                          build/obj/ext_lld_isr.o
                                                  build/obj/vectors.o
VectorEC                                          build/obj/vectors.o
VectorF0                                          build/obj/vectors.o
VectorF4                                          build/obj/gpt_lld.o
                                                  build/obj/vectors.o
VectorF8                                          build/obj/vectors.o
VectorFC                                          build/obj/stm32_dma.o
                                                  build/obj/vectors.o
__adddf3                                          c:/chibistudio/tools/gnu tools arm embedded/4.7 2013q1/bin/../lib/gcc/arm-none-eabi/4.7.3/armv7e-m\libgcc.a(_arm_addsubdf3.o)
__aeabi_cdcmpeq                                   c:/chibistudio/tools/gnu tools arm embedded/4.7 2013q1/bin/../lib/gcc/arm-none-eabi/4.7.3/armv7e-m\libgcc.a(_arm_cmpdf2.o)
__aeabi_cdcmple                                   c:/chibistudio/tools/gnu tools arm embedded/4.7 2013q1/bin/../lib/gcc/arm-none-eabi/4.7.3/armv7e-m\libgcc.a(_arm_cmpdf2.o)
__aeabi_cdrcmple                                  c:/chibistudio/tools/gnu tools arm embedded/4.7 2013q1/bin/../lib/gcc/arm-none-eabi/4.7.3/armv7e-m\libgcc.a(_arm_cmpdf2.o)
__aeabi_d2f                                       c:/chibistudio/tools/gnu tools arm embedded/4.7 2013q1/bin/../lib/gcc/arm-none-eabi/4.7.3/armv7e-m\libgcc.a(_arm_truncdfsf2.o)
                                                  build/obj/kb_gps.o
                                                  build/obj/chprintf.o
__aeabi_d2iz                                      c:/chibistudio/tools/gnu tools arm embedded/4.7 2013q1/bin/../lib/gcc/arm-none-eabi/4.7.3/armv7e-m\libgcc.a(_arm_fixdfsi.o)
                                                  c:/chibistudio/tools/gnu tools arm embedded/4.7 2013q1/bin/../lib/gcc/arm-none-eabi/4.7.3/../../../../arm-none-eabi/lib/armv7e-m\libm.a(lib_a-k_sin.o)
                                                  c:/chibistudio/tools/gnu tools arm embedded/4.7 2013q1/bin/../lib/gcc/arm-none-eabi/4.7.3/../../../../arm-none-eabi/lib/armv7e-m\libm.a(lib_a-k_rem_pio2.o)
                                                  c:/chibistudio/tools/gnu tools arm embedded/4.7 2013q1/bin/../lib/gcc/arm-none-eabi/4.7.3/../../../../arm-none-eabi/lib/armv7e-m\libm.a(lib_a-k_cos.o)
                                                  c:/chibistudio/tools/gnu tools arm embedded/4.7 2013q1/bin/../lib/gcc/arm-none-eabi/4.7.3/../../../../arm-none-eabi/lib/armv7e-m\libm.a(lib_a-e_rem_pio2.o)
                                                  build/obj/chprintf.o
__aeabi_dadd                                      c:/chibistudio/tools/gnu tools arm embedded/4.7 2013q1/bin/../lib/gcc/arm-none-eabi/4.7.3/armv7e-m\libgcc.a(_arm_addsubdf3.o)
                                                  c:/chibistudio/tools/gnu tools arm embedded/4.7 2013q1/bin/../lib/gcc/arm-none-eabi/4.7.3/../../../../arm-none-eabi/lib/armv7e-m\libm.a(lib_a-s_scalbn.o)
                                                  c:/chibistudio/tools/gnu tools arm embedded/4.7 2013q1/bin/../lib/gcc/arm-none-eabi/4.7.3/../../../../arm-none-eabi/lib/armv7e-m\libm.a(lib_a-s_rint.o)
                                                  c:/chibistudio/tools/gnu tools arm embedded/4.7 2013q1/bin/../lib/gcc/arm-none-eabi/4.7.3/../../../../arm-none-eabi/lib/armv7e-m\libm.a(lib_a-s_floor.o)
                                                  c:/chibistudio/tools/gnu tools arm embedded/4.7 2013q1/bin/../lib/gcc/arm-none-eabi/4.7.3/../../../../arm-none-eabi/lib/armv7e-m\libm.a(lib_a-s_atan.o)
                                                  c:/chibistudio/tools/gnu tools arm embedded/4.7 2013q1/bin/../lib/gcc/arm-none-eabi/4.7.3/../../../../arm-none-eabi/lib/armv7e-m\libm.a(lib_a-k_sin.o)
                                                  c:/chibistudio/tools/gnu tools arm embedded/4.7 2013q1/bin/../lib/gcc/arm-none-eabi/4.7.3/../../../../arm-none-eabi/lib/armv7e-m\libm.a(lib_a-k_rem_pio2.o)
                                                  c:/chibistudio/tools/gnu tools arm embedded/4.7 2013q1/bin/../lib/gcc/arm-none-eabi/4.7.3/../../../../arm-none-eabi/lib/armv7e-m\libm.a(lib_a-k_cos.o)
                                                  c:/chibistudio/tools/gnu tools arm embedded/4.7 2013q1/bin/../lib/gcc/arm-none-eabi/4.7.3/../../../../arm-none-eabi/lib/armv7e-m\libm.a(lib_a-e_sqrt.o)
                                                  c:/chibistudio/tools/gnu tools arm embedded/4.7 2013q1/bin/../lib/gcc/arm-none-eabi/4.7.3/../../../../arm-none-eabi/lib/armv7e-m\libm.a(lib_a-e_rem_pio2.o)
                                                  c:/chibistudio/tools/gnu tools arm embedded/4.7 2013q1/bin/../lib/gcc/arm-none-eabi/4.7.3/../../../../arm-none-eabi/lib/armv7e-m\libm.a(lib_a-e_pow.o)
                                                  c:/chibistudio/tools/gnu tools arm embedded/4.7 2013q1/bin/../lib/gcc/arm-none-eabi/4.7.3/../../../../arm-none-eabi/lib/armv7e-m\libm.a(lib_a-e_atan2.o)
                                                  build/obj/kb_gps.o
__aeabi_dcmpeq                                    c:/chibistudio/tools/gnu tools arm embedded/4.7 2013q1/bin/../lib/gcc/arm-none-eabi/4.7.3/armv7e-m\libgcc.a(_arm_cmpdf2.o)
                                                  c:/chibistudio/tools/gnu tools arm embedded/4.7 2013q1/bin/../lib/gcc/arm-none-eabi/4.7.3/../../../../arm-none-eabi/lib/armv7e-m\libm.a(lib_a-k_rem_pio2.o)
                                                  c:/chibistudio/tools/gnu tools arm embedded/4.7 2013q1/bin/../lib/gcc/arm-none-eabi/4.7.3/../../../../arm-none-eabi/lib/armv7e-m\libm.a(lib_a-e_rem_pio2.o)
                                                  c:/chibistudio/tools/gnu tools arm embedded/4.7 2013q1/bin/../lib/gcc/arm-none-eabi/4.7.3/../../../../arm-none-eabi/lib/armv7e-m\libm.a(lib_a-w_pow.o)
__aeabi_dcmpge                                    c:/chibistudio/tools/gnu tools arm embedded/4.7 2013q1/bin/../lib/gcc/arm-none-eabi/4.7.3/armv7e-m\libgcc.a(_arm_cmpdf2.o)
                                                  c:/chibistudio/tools/gnu tools arm embedded/4.7 2013q1/bin/../lib/gcc/arm-none-eabi/4.7.3/../../../../arm-none-eabi/lib/armv7e-m\libm.a(lib_a-k_rem_pio2.o)
__aeabi_dcmpgt                                    c:/chibistudio/tools/gnu tools arm embedded/4.7 2013q1/bin/../lib/gcc/arm-none-eabi/4.7.3/armv7e-m\libgcc.a(_arm_cmpdf2.o)
                                                  c:/chibistudio/tools/gnu tools arm embedded/4.7 2013q1/bin/../lib/gcc/arm-none-eabi/4.7.3/../../../../arm-none-eabi/lib/armv7e-m\libm.a(lib_a-s_floor.o)
                                                  c:/chibistudio/tools/gnu tools arm embedded/4.7 2013q1/bin/../lib/gcc/arm-none-eabi/4.7.3/../../../../arm-none-eabi/lib/armv7e-m\libm.a(lib_a-s_atan.o)
                                                  c:/chibistudio/tools/gnu tools arm embedded/4.7 2013q1/bin/../lib/gcc/arm-none-eabi/4.7.3/../../../../arm-none-eabi/lib/armv7e-m\libm.a(lib_a-e_pow.o)
__aeabi_dcmple                                    c:/chibistudio/tools/gnu tools arm embedded/4.7 2013q1/bin/../lib/gcc/arm-none-eabi/4.7.3/armv7e-m\libgcc.a(_arm_cmpdf2.o)
                                                  c:/chibistudio/tools/gnu tools arm embedded/4.7 2013q1/bin/../lib/gcc/arm-none-eabi/4.7.3/../../../../arm-none-eabi/lib/armv7e-m\libm.a(lib_a-e_pow.o)
__aeabi_dcmplt                                    c:/chibistudio/tools/gnu tools arm embedded/4.7 2013q1/bin/../lib/gcc/arm-none-eabi/4.7.3/armv7e-m\libgcc.a(_arm_cmpdf2.o)
                                                  c:/chibistudio/tools/gnu tools arm embedded/4.7 2013q1/bin/../lib/gcc/arm-none-eabi/4.7.3/../../../../arm-none-eabi/lib/armv7e-m\libm.a(lib_a-w_sqrt.o)
                                                  c:/chibistudio/tools/gnu tools arm embedded/4.7 2013q1/bin/../lib/gcc/arm-none-eabi/4.7.3/../../../../arm-none-eabi/lib/armv7e-m\libm.a(lib_a-w_pow.o)
__aeabi_ddiv                                      c:/chibistudio/tools/gnu tools arm embedded/4.7 2013q1/bin/../lib/gcc/arm-none-eabi/4.7.3/armv7e-m\libgcc.a(_arm_muldivdf3.o)
                                                  c:/chibistudio/tools/gnu tools arm embedded/4.7 2013q1/bin/../lib/gcc/arm-none-eabi/4.7.3/../../../../arm-none-eabi/lib/armv7e-m\libm.a(lib_a-s_atan.o)
                                                  c:/chibistudio/tools/gnu tools arm embedded/4.7 2013q1/bin/../lib/gcc/arm-none-eabi/4.7.3/../../../../arm-none-eabi/lib/armv7e-m\libm.a(lib_a-e_sqrt.o)
                                                  c:/chibistudio/tools/gnu tools arm embedded/4.7 2013q1/bin/../lib/gcc/arm-none-eabi/4.7.3/../../../../arm-none-eabi/lib/armv7e-m\libm.a(lib_a-e_pow.o)
                                                  c:/chibistudio/tools/gnu tools arm embedded/4.7 2013q1/bin/../lib/gcc/arm-none-eabi/4.7.3/../../../../arm-none-eabi/lib/armv7e-m\libm.a(lib_a-e_atan2.o)
                                                  c:/chibistudio/tools/gnu tools arm embedded/4.7 2013q1/bin/../lib/gcc/arm-none-eabi/4.7.3/../../../../arm-none-eabi/lib/armv7e-m\libm.a(lib_a-w_sqrt.o)
                                                  c:/chibistudio/tools/gnu tools arm embedded/4.7 2013q1/bin/../lib/gcc/arm-none-eabi/4.7.3/../../../../arm-none-eabi/lib/armv7e-m\libm.a(lib_a-w_pow.o)
                                                  build/obj/kb_gps.o
__aeabi_dmul                                      c:/chibistudio/tools/gnu tools arm embedded/4.7 2013q1/bin/../lib/gcc/arm-none-eabi/4.7.3/armv7e-m\libgcc.a(_arm_muldivdf3.o)
                                                  c:/chibistudio/tools/gnu tools arm embedded/4.7 2013q1/bin/../lib/gcc/arm-none-eabi/4.7.3/../../../../arm-none-eabi/lib/armv7e-m\libm.a(lib_a-s_scalbn.o)
                                                  c:/chibistudio/tools/gnu tools arm embedded/4.7 2013q1/bin/../lib/gcc/arm-none-eabi/4.7.3/../../../../arm-none-eabi/lib/armv7e-m\libm.a(lib_a-s_atan.o)
                                                  c:/chibistudio/tools/gnu tools arm embedded/4.7 2013q1/bin/../lib/gcc/arm-none-eabi/4.7.3/../../../../arm-none-eabi/lib/armv7e-m\libm.a(lib_a-k_sin.o)
                                                  c:/chibistudio/tools/gnu tools arm embedded/4.7 2013q1/bin/../lib/gcc/arm-none-eabi/4.7.3/../../../../arm-none-eabi/lib/armv7e-m\libm.a(lib_a-k_rem_pio2.o)
                                                  c:/chibistudio/tools/gnu tools arm embedded/4.7 2013q1/bin/../lib/gcc/arm-none-eabi/4.7.3/../../../../arm-none-eabi/lib/armv7e-m\libm.a(lib_a-k_cos.o)
                                                  c:/chibistudio/tools/gnu tools arm embedded/4.7 2013q1/bin/../lib/gcc/arm-none-eabi/4.7.3/../../../../arm-none-eabi/lib/armv7e-m\libm.a(lib_a-e_sqrt.o)
                                                  c:/chibistudio/tools/gnu tools arm embedded/4.7 2013q1/bin/../lib/gcc/arm-none-eabi/4.7.3/../../../../arm-none-eabi/lib/armv7e-m\libm.a(lib_a-e_rem_pio2.o)
                                                  c:/chibistudio/tools/gnu tools arm embedded/4.7 2013q1/bin/../lib/gcc/arm-none-eabi/4.7.3/../../../../arm-none-eabi/lib/armv7e-m\libm.a(lib_a-e_pow.o)
                                                  c:/chibistudio/tools/gnu tools arm embedded/4.7 2013q1/bin/../lib/gcc/arm-none-eabi/4.7.3/../../../../arm-none-eabi/lib/armv7e-m\libm.a(lib_a-w_pow.o)
                                                  build/obj/kb_gps.o
                                                  build/obj/chprintf.o
__aeabi_drsub                                     c:/chibistudio/tools/gnu tools arm embedded/4.7 2013q1/bin/../lib/gcc/arm-none-eabi/4.7.3/armv7e-m\libgcc.a(_arm_addsubdf3.o)
__aeabi_dsub                                      c:/chibistudio/tools/gnu tools arm embedded/4.7 2013q1/bin/../lib/gcc/arm-none-eabi/4.7.3/armv7e-m\libgcc.a(_arm_addsubdf3.o)
                                                  c:/chibistudio/tools/gnu tools arm embedded/4.7 2013q1/bin/../lib/gcc/arm-none-eabi/4.7.3/../../../../arm-none-eabi/lib/armv7e-m\libm.a(lib_a-s_rint.o)
                                                  c:/chibistudio/tools/gnu tools arm embedded/4.7 2013q1/bin/../lib/gcc/arm-none-eabi/4.7.3/../../../../arm-none-eabi/lib/armv7e-m\libm.a(lib_a-s_atan.o)
                                                  c:/chibistudio/tools/gnu tools arm embedded/4.7 2013q1/bin/../lib/gcc/arm-none-eabi/4.7.3/../../../../arm-none-eabi/lib/armv7e-m\libm.a(lib_a-k_sin.o)
                                                  c:/chibistudio/tools/gnu tools arm embedded/4.7 2013q1/bin/../lib/gcc/arm-none-eabi/4.7.3/../../../../arm-none-eabi/lib/armv7e-m\libm.a(lib_a-k_rem_pio2.o)
                                                  c:/chibistudio/tools/gnu tools arm embedded/4.7 2013q1/bin/../lib/gcc/arm-none-eabi/4.7.3/../../../../arm-none-eabi/lib/armv7e-m\libm.a(lib_a-k_cos.o)
                                                  c:/chibistudio/tools/gnu tools arm embedded/4.7 2013q1/bin/../lib/gcc/arm-none-eabi/4.7.3/../../../../arm-none-eabi/lib/armv7e-m\libm.a(lib_a-e_sqrt.o)
                                                  c:/chibistudio/tools/gnu tools arm embedded/4.7 2013q1/bin/../lib/gcc/arm-none-eabi/4.7.3/../../../../arm-none-eabi/lib/armv7e-m\libm.a(lib_a-e_rem_pio2.o)
                                                  c:/chibistudio/tools/gnu tools arm embedded/4.7 2013q1/bin/../lib/gcc/arm-none-eabi/4.7.3/../../../../arm-none-eabi/lib/armv7e-m\libm.a(lib_a-e_pow.o)
                                                  c:/chibistudio/tools/gnu tools arm embedded/4.7 2013q1/bin/../lib/gcc/arm-none-eabi/4.7.3/../../../../arm-none-eabi/lib/armv7e-m\libm.a(lib_a-e_atan2.o)
                                                  c:/chibistudio/tools/gnu tools arm embedded/4.7 2013q1/bin/../lib/gcc/arm-none-eabi/4.7.3/../../../../arm-none-eabi/lib/armv7e-m\libm.a(lib_a-s_sin.o)
                                                  c:/chibistudio/tools/gnu tools arm embedded/4.7 2013q1/bin/../lib/gcc/arm-none-eabi/4.7.3/../../../../arm-none-eabi/lib/armv7e-m\libm.a(lib_a-s_cos.o)
                                                  build/obj/kb_gps.o
                                                  build/obj/chprintf.o
__aeabi_f2d                                       c:/chibistudio/tools/gnu tools arm embedded/4.7 2013q1/bin/../lib/gcc/arm-none-eabi/4.7.3/armv7e-m\libgcc.a(_arm_addsubdf3.o)
                                                  build/obj/kb_screen.o
                                                  build/obj/kb_gps.o
                                                  build/obj/chprintf.o
__aeabi_i2d                                       c:/chibistudio/tools/gnu tools arm embedded/4.7 2013q1/bin/../lib/gcc/arm-none-eabi/4.7.3/armv7e-m\libgcc.a(_arm_addsubdf3.o)
                                                  c:/chibistudio/tools/gnu tools arm embedded/4.7 2013q1/bin/../lib/gcc/arm-none-eabi/4.7.3/../../../../arm-none-eabi/lib/armv7e-m\libm.a(lib_a-k_rem_pio2.o)
                                                  c:/chibistudio/tools/gnu tools arm embedded/4.7 2013q1/bin/../lib/gcc/arm-none-eabi/4.7.3/../../../../arm-none-eabi/lib/armv7e-m\libm.a(lib_a-e_rem_pio2.o)
                                                  c:/chibistudio/tools/gnu tools arm embedded/4.7 2013q1/bin/../lib/gcc/arm-none-eabi/4.7.3/../../../../arm-none-eabi/lib/armv7e-m\libm.a(lib_a-e_pow.o)
                                                  build/obj/kb_gps.o
                                                  build/obj/chprintf.o
__aeabi_l2d                                       c:/chibistudio/tools/gnu tools arm embedded/4.7 2013q1/bin/../lib/gcc/arm-none-eabi/4.7.3/armv7e-m\libgcc.a(_arm_addsubdf3.o)
__aeabi_ui2d                                      c:/chibistudio/tools/gnu tools arm embedded/4.7 2013q1/bin/../lib/gcc/arm-none-eabi/4.7.3/armv7e-m\libgcc.a(_arm_addsubdf3.o)
                                                  build/obj/chprintf.o
__aeabi_ul2d                                      c:/chibistudio/tools/gnu tools arm embedded/4.7 2013q1/bin/../lib/gcc/arm-none-eabi/4.7.3/armv7e-m\libgcc.a(_arm_addsubdf3.o)
__cmpdf2                                          c:/chibistudio/tools/gnu tools arm embedded/4.7 2013q1/bin/../lib/gcc/arm-none-eabi/4.7.3/armv7e-m\libgcc.a(_arm_cmpdf2.o)
__divdf3                                          c:/chibistudio/tools/gnu tools arm embedded/4.7 2013q1/bin/../lib/gcc/arm-none-eabi/4.7.3/armv7e-m\libgcc.a(_arm_muldivdf3.o)
__early_init                                      build/obj/board.o
                                                  build/obj/crt0.o
__eqdf2                                           c:/chibistudio/tools/gnu tools arm embedded/4.7 2013q1/bin/../lib/gcc/arm-none-eabi/4.7.3/armv7e-m\libgcc.a(_arm_cmpdf2.o)
__errno                                           c:/chibistudio/tools/gnu tools arm embedded/4.7 2013q1/bin/../lib/gcc/arm-none-eabi/4.7.3/../../../../arm-none-eabi/lib/armv7e-m\libc.a(lib_a-errno.o)
                                                  c:/chibistudio/tools/gnu tools arm embedded/4.7 2013q1/bin/../lib/gcc/arm-none-eabi/4.7.3/../../../../arm-none-eabi/lib/armv7e-m\libm.a(lib_a-w_sqrt.o)
                                                  c:/chibistudio/tools/gnu tools arm embedded/4.7 2013q1/bin/../lib/gcc/arm-none-eabi/4.7.3/../../../../arm-none-eabi/lib/armv7e-m\libm.a(lib_a-w_pow.o)
__extendsfdf2                                     c:/chibistudio/tools/gnu tools arm embedded/4.7 2013q1/bin/../lib/gcc/arm-none-eabi/4.7.3/armv7e-m\libgcc.a(_arm_addsubdf3.o)
__fdlib_version                                   c:/chibistudio/tools/gnu tools arm embedded/4.7 2013q1/bin/../lib/gcc/arm-none-eabi/4.7.3/../../../../arm-none-eabi/lib/armv7e-m\libm.a(lib_a-s_lib_ver.o)
                                                  c:/chibistudio/tools/gnu tools arm embedded/4.7 2013q1/bin/../lib/gcc/arm-none-eabi/4.7.3/../../../../arm-none-eabi/lib/armv7e-m\libm.a(lib_a-w_sqrt.o)
                                                  c:/chibistudio/tools/gnu tools arm embedded/4.7 2013q1/bin/../lib/gcc/arm-none-eabi/4.7.3/../../../../arm-none-eabi/lib/armv7e-m\libm.a(lib_a-w_pow.o)
__fini_array_end                                  build/obj/crt0.o
__fini_array_start                                build/obj/crt0.o
__fixdfsi                                         c:/chibistudio/tools/gnu tools arm embedded/4.7 2013q1/bin/../lib/gcc/arm-none-eabi/4.7.3/armv7e-m\libgcc.a(_arm_fixdfsi.o)
__floatdidf                                       c:/chibistudio/tools/gnu tools arm embedded/4.7 2013q1/bin/../lib/gcc/arm-none-eabi/4.7.3/armv7e-m\libgcc.a(_arm_addsubdf3.o)
__floatsidf                                       c:/chibistudio/tools/gnu tools arm embedded/4.7 2013q1/bin/../lib/gcc/arm-none-eabi/4.7.3/armv7e-m\libgcc.a(_arm_addsubdf3.o)
__floatundidf                                     c:/chibistudio/tools/gnu tools arm embedded/4.7 2013q1/bin/../lib/gcc/arm-none-eabi/4.7.3/armv7e-m\libgcc.a(_arm_addsubdf3.o)
__floatunsidf                                     c:/chibistudio/tools/gnu tools arm embedded/4.7 2013q1/bin/../lib/gcc/arm-none-eabi/4.7.3/armv7e-m\libgcc.a(_arm_addsubdf3.o)
__fpclassifyd                                     c:/chibistudio/tools/gnu tools arm embedded/4.7 2013q1/bin/../lib/gcc/arm-none-eabi/4.7.3/../../../../arm-none-eabi/lib/armv7e-m\libm.a(lib_a-s_fpclassify.o)
                                                  c:/chibistudio/tools/gnu tools arm embedded/4.7 2013q1/bin/../lib/gcc/arm-none-eabi/4.7.3/../../../../arm-none-eabi/lib/armv7e-m\libm.a(lib_a-w_sqrt.o)
                                                  c:/chibistudio/tools/gnu tools arm embedded/4.7 2013q1/bin/../lib/gcc/arm-none-eabi/4.7.3/../../../../arm-none-eabi/lib/armv7e-m\libm.a(lib_a-w_pow.o)
__gedf2                                           c:/chibistudio/tools/gnu tools arm embedded/4.7 2013q1/bin/../lib/gcc/arm-none-eabi/4.7.3/armv7e-m\libgcc.a(_arm_cmpdf2.o)
__gettzinfo                                       c:/chibistudio/tools/gnu tools arm embedded/4.7 2013q1/bin/../lib/gcc/arm-none-eabi/4.7.3/../../../../arm-none-eabi/lib/armv7e-m\libc.a(lib_a-gettzinfo.o)
                                                  c:/chibistudio/tools/gnu tools arm embedded/4.7 2013q1/bin/../lib/gcc/arm-none-eabi/4.7.3/../../../../arm-none-eabi/lib/armv7e-m\libc.a(lib_a-mktm_r.o)
                                                  c:/chibistudio/tools/gnu tools arm embedded/4.7 2013q1/bin/../lib/gcc/arm-none-eabi/4.7.3/../../../../arm-none-eabi/lib/armv7e-m\libc.a(lib_a-mktime.o)
__gtdf2                                           c:/chibistudio/tools/gnu tools arm embedded/4.7 2013q1/bin/../lib/gcc/arm-none-eabi/4.7.3/armv7e-m\libgcc.a(_arm_cmpdf2.o)
__heap_base__                                     build/obj/chmemcore.o
__heap_end__                                      build/obj/chmemcore.o
__ieee754_atan2                                   c:/chibistudio/tools/gnu tools arm embedded/4.7 2013q1/bin/../lib/gcc/arm-none-eabi/4.7.3/../../../../arm-none-eabi/lib/armv7e-m\libm.a(lib_a-e_atan2.o)
                                                  c:/chibistudio/tools/gnu tools arm embedded/4.7 2013q1/bin/../lib/gcc/arm-none-eabi/4.7.3/../../../../arm-none-eabi/lib/armv7e-m\libm.a(lib_a-w_atan2.o)
__ieee754_pow                                     c:/chibistudio/tools/gnu tools arm embedded/4.7 2013q1/bin/../lib/gcc/arm-none-eabi/4.7.3/../../../../arm-none-eabi/lib/armv7e-m\libm.a(lib_a-e_pow.o)
                                                  c:/chibistudio/tools/gnu tools arm embedded/4.7 2013q1/bin/../lib/gcc/arm-none-eabi/4.7.3/../../../../arm-none-eabi/lib/armv7e-m\libm.a(lib_a-w_pow.o)
__ieee754_rem_pio2                                c:/chibistudio/tools/gnu tools arm embedded/4.7 2013q1/bin/../lib/gcc/arm-none-eabi/4.7.3/../../../../arm-none-eabi/lib/armv7e-m\libm.a(lib_a-e_rem_pio2.o)
                                                  c:/chibistudio/tools/gnu tools arm embedded/4.7 2013q1/bin/../lib/gcc/arm-none-eabi/4.7.3/../../../../arm-none-eabi/lib/armv7e-m\libm.a(lib_a-s_sin.o)
                                                  c:/chibistudio/tools/gnu tools arm embedded/4.7 2013q1/bin/../lib/gcc/arm-none-eabi/4.7.3/../../../../arm-none-eabi/lib/armv7e-m\libm.a(lib_a-s_cos.o)
__ieee754_sqrt                                    c:/chibistudio/tools/gnu tools arm embedded/4.7 2013q1/bin/../lib/gcc/arm-none-eabi/4.7.3/../../../../arm-none-eabi/lib/armv7e-m\libm.a(lib_a-e_sqrt.o)
                                                  c:/chibistudio/tools/gnu tools arm embedded/4.7 2013q1/bin/../lib/gcc/arm-none-eabi/4.7.3/../../../../arm-none-eabi/lib/armv7e-m\libm.a(lib_a-e_pow.o)
                                                  c:/chibistudio/tools/gnu tools arm embedded/4.7 2013q1/bin/../lib/gcc/arm-none-eabi/4.7.3/../../../../arm-none-eabi/lib/armv7e-m\libm.a(lib_a-w_sqrt.o)
__init_array_end                                  build/obj/crt0.o
__init_array_start                                build/obj/crt0.o
__kernel_cos                                      c:/chibistudio/tools/gnu tools arm embedded/4.7 2013q1/bin/../lib/gcc/arm-none-eabi/4.7.3/../../../../arm-none-eabi/lib/armv7e-m\libm.a(lib_a-k_cos.o)
                                                  c:/chibistudio/tools/gnu tools arm embedded/4.7 2013q1/bin/../lib/gcc/arm-none-eabi/4.7.3/../../../../arm-none-eabi/lib/armv7e-m\libm.a(lib_a-s_sin.o)
                                                  c:/chibistudio/tools/gnu tools arm embedded/4.7 2013q1/bin/../lib/gcc/arm-none-eabi/4.7.3/../../../../arm-none-eabi/lib/armv7e-m\libm.a(lib_a-s_cos.o)
__kernel_rem_pio2                                 c:/chibistudio/tools/gnu tools arm embedded/4.7 2013q1/bin/../lib/gcc/arm-none-eabi/4.7.3/../../../../arm-none-eabi/lib/armv7e-m\libm.a(lib_a-k_rem_pio2.o)
                                                  c:/chibistudio/tools/gnu tools arm embedded/4.7 2013q1/bin/../lib/gcc/arm-none-eabi/4.7.3/../../../../arm-none-eabi/lib/armv7e-m\libm.a(lib_a-e_rem_pio2.o)
__kernel_sin                                      c:/chibistudio/tools/gnu tools arm embedded/4.7 2013q1/bin/../lib/gcc/arm-none-eabi/4.7.3/../../../../arm-none-eabi/lib/armv7e-m\libm.a(lib_a-k_sin.o)
                                                  c:/chibistudio/tools/gnu tools arm embedded/4.7 2013q1/bin/../lib/gcc/arm-none-eabi/4.7.3/../../../../arm-none-eabi/lib/armv7e-m\libm.a(lib_a-s_sin.o)
                                                  c:/chibistudio/tools/gnu tools arm embedded/4.7 2013q1/bin/../lib/gcc/arm-none-eabi/4.7.3/../../../../arm-none-eabi/lib/armv7e-m\libm.a(lib_a-s_cos.o)
__late_init                                       build/obj/crt0.o
__ledf2                                           c:/chibistudio/tools/gnu tools arm embedded/4.7 2013q1/bin/../lib/gcc/arm-none-eabi/4.7.3/armv7e-m\libgcc.a(_arm_cmpdf2.o)
__ltdf2                                           c:/chibistudio/tools/gnu tools arm embedded/4.7 2013q1/bin/../lib/gcc/arm-none-eabi/4.7.3/armv7e-m\libgcc.a(_arm_cmpdf2.o)
__main_stack_base__                               build/obj/crt0.o
__main_stack_end__                                build/obj/vectors.o
                                                  build/obj/crt0.o
__main_thread_stack_base__                        build/obj/chsys.o
__muldf3                                          c:/chibistudio/tools/gnu tools arm embedded/4.7 2013q1/bin/../lib/gcc/arm-none-eabi/4.7.3/armv7e-m\libgcc.a(_arm_muldivdf3.o)
__nedf2                                           c:/chibistudio/tools/gnu tools arm embedded/4.7 2013q1/bin/../lib/gcc/arm-none-eabi/4.7.3/armv7e-m\libgcc.a(_arm_cmpdf2.o)
__process_stack_base__                            build/obj/crt0.o
__process_stack_end__                             build/obj/crt0.o
__subdf3                                          c:/chibistudio/tools/gnu tools arm embedded/4.7 2013q1/bin/../lib/gcc/arm-none-eabi/4.7.3/armv7e-m\libgcc.a(_arm_addsubdf3.o)
__truncdfsf2                                      c:/chibistudio/tools/gnu tools arm embedded/4.7 2013q1/bin/../lib/gcc/arm-none-eabi/4.7.3/armv7e-m\libgcc.a(_arm_truncdfsf2.o)
__tz_lock                                         c:/chibistudio/tools/gnu tools arm embedded/4.7 2013q1/bin/../lib/gcc/arm-none-eabi/4.7.3/../../../../arm-none-eabi/lib/armv7e-m\libc.a(lib_a-tzlock.o)
                                                  c:/chibistudio/tools/gnu tools arm embedded/4.7 2013q1/bin/../lib/gcc/arm-none-eabi/4.7.3/../../../../arm-none-eabi/lib/armv7e-m\libc.a(lib_a-mktm_r.o)
__tz_unlock                                       c:/chibistudio/tools/gnu tools arm embedded/4.7 2013q1/bin/../lib/gcc/arm-none-eabi/4.7.3/../../../../arm-none-eabi/lib/armv7e-m\libc.a(lib_a-tzlock.o)
                                                  c:/chibistudio/tools/gnu tools arm embedded/4.7 2013q1/bin/../lib/gcc/arm-none-eabi/4.7.3/../../../../arm-none-eabi/lib/armv7e-m\libc.a(lib_a-mktm_r.o)
__tzcalc_limits                                   c:/chibistudio/tools/gnu tools arm embedded/4.7 2013q1/bin/../lib/gcc/arm-none-eabi/4.7.3/../../../../arm-none-eabi/lib/armv7e-m\libc.a(lib_a-mktm_r.o)
                                                  c:/chibistudio/tools/gnu tools arm embedded/4.7 2013q1/bin/../lib/gcc/arm-none-eabi/4.7.3/../../../../arm-none-eabi/lib/armv7e-m\libc.a(lib_a-mktime.o)
_bss_end                                          build/obj/crt0.o
_bss_start                                        build/obj/crt0.o
_core_init                                        build/obj/chmemcore.o
                                                  build/obj/chsys.o
_data                                             build/obj/crt0.o
_daylight                                         c:/chibistudio/tools/gnu tools arm embedded/4.7 2013q1/bin/../lib/gcc/arm-none-eabi/4.7.3/../../../../arm-none-eabi/lib/armv7e-m\libc.a(lib_a-tzvars.o)
                                                  c:/chibistudio/tools/gnu tools arm embedded/4.7 2013q1/bin/../lib/gcc/arm-none-eabi/4.7.3/../../../../arm-none-eabi/lib/armv7e-m\libc.a(lib_a-mktm_r.o)
                                                  c:/chibistudio/tools/gnu tools arm embedded/4.7 2013q1/bin/../lib/gcc/arm-none-eabi/4.7.3/../../../../arm-none-eabi/lib/armv7e-m\libc.a(lib_a-mktime.o)
_default_exit                                     build/obj/crt0.o
_edata                                            build/obj/crt0.o
_global_impure_ptr                                c:/chibistudio/tools/gnu tools arm embedded/4.7 2013q1/bin/../lib/gcc/arm-none-eabi/4.7.3/../../../../arm-none-eabi/lib/armv7e-m\libc.a(lib_a-impure.o)
_heap_init                                        build/obj/chheap.o
                                                  build/obj/chsys.o
_idle_thread                                      build/obj/chsys.o
_idle_thread_wa                                   build/obj/chsys.o
_impure_ptr                                       c:/chibistudio/tools/gnu tools arm embedded/4.7 2013q1/bin/../lib/gcc/arm-none-eabi/4.7.3/../../../../arm-none-eabi/lib/armv7e-m\libc.a(lib_a-impure.o)
                                                  c:/chibistudio/tools/gnu tools arm embedded/4.7 2013q1/bin/../lib/gcc/arm-none-eabi/4.7.3/../../../../arm-none-eabi/lib/armv7e-m\libc.a(lib_a-errno.o)
_mktm_r                                           c:/chibistudio/tools/gnu tools arm embedded/4.7 2013q1/bin/../lib/gcc/arm-none-eabi/4.7.3/../../../../arm-none-eabi/lib/armv7e-m\libc.a(lib_a-mktm_r.o)
                                                  c:/chibistudio/tools/gnu tools arm embedded/4.7 2013q1/bin/../lib/gcc/arm-none-eabi/4.7.3/../../../../arm-none-eabi/lib/armv7e-m\libc.a(lib_a-lcltime_r.o)
_pal_lld_init                                     build/obj/pal_lld.o
                                                  build/obj/hal.o
_pal_lld_setgroupmode                             build/obj/pal_lld.o
                                                  build/obj/pal.o
_port_init                                        build/obj/chcore_v7m.o
                                                  build/obj/chsys.o
_port_irq_epilogue                                build/obj/chcore_v7m.o
                                                  build/obj/serial_lld.o
                                                  build/obj/i2c_lld.o
                                                  build/obj/sdc_lld.o
                                                  build/obj/icu_lld.o
                                                  build/obj/gpt_lld.o
                                                  build/obj/ext_lld_isr.o
                                                  build/obj/adc_lld.o
                                                  build/obj/stm32_dma.o
_port_switch                                      build/obj/chcore_v7m.o
                                                  build/obj/chschd.o
_port_switch_from_isr                             build/obj/chcore_v7m.o
_port_thread_start                                build/obj/chcore_v7m.o
                                                  build/obj/chthreads.o
_scheduler_init                                   build/obj/chschd.o
                                                  build/obj/chsys.o
_sdc_wait_for_transfer_state                      build/obj/sdc.o
                                                  build/obj/sdc_lld.o
_stm32_dma_streams                                build/obj/stm32_dma.o
                                                  build/obj/spi_lld.o
                                                  build/obj/i2c_lld.o
                                                  build/obj/sdc_lld.o
                                                  build/obj/adc_lld.o
_textdata                                         build/obj/crt0.o
_thread_init                                      build/obj/chthreads.o
                                                  build/obj/chsys.o
_thread_memfill                                   build/obj/chthreads.o
                                                  build/obj/chdynamic.o
_timezone                                         c:/chibistudio/tools/gnu tools arm embedded/4.7 2013q1/bin/../lib/gcc/arm-none-eabi/4.7.3/../../../../arm-none-eabi/lib/armv7e-m\libc.a(lib_a-tzvars.o)
_trace_init                                       build/obj/chdebug.o
                                                  build/obj/chsys.o
_tzname                                           c:/chibistudio/tools/gnu tools arm embedded/4.7 2013q1/bin/../lib/gcc/arm-none-eabi/4.7.3/../../../../arm-none-eabi/lib/armv7e-m\libc.a(lib_a-tzvars.o)
_unhandled_exception                              build/obj/vectors.o
_vectors                                          build/obj/vectors.o
_vt_init                                          build/obj/chvt.o
                                                  build/obj/chsys.o
adcAcquireBus                                     build/obj/adc.o
adcConvert                                        build/obj/adc.o
adcInit                                           build/obj/adc.o
                                                  build/obj/hal.o
adcObjectInit                                     build/obj/adc.o
                                                  build/obj/adc_lld.o
adcReleaseBus                                     build/obj/adc.o
adcSTM32DisableTSVREFE                            build/obj/adc_lld.o
adcSTM32DisableVBATE                              build/obj/adc_lld.o
adcSTM32EnableTSVREFE                             build/obj/adc_lld.o
                                                  build/obj/kb_adc.o
adcSTM32EnableVBATE                               build/obj/adc_lld.o
                                                  build/obj/kb_adc.o
adcStart                                          build/obj/adc.o
                                                  build/obj/kb_adc.o
adcStartConversion                                build/obj/adc.o
adcStartConversionI                               build/obj/adc.o
                                                  build/obj/kb_adc.o
adcStop                                           build/obj/adc.o
                                                  build/obj/kb_adc.o
adcStopConversion                                 build/obj/adc.o
                                                  build/obj/kb_adc.o
adcStopConversionI                                build/obj/adc.o
adc_cb                                            build/obj/kb_adc.o
adc_lld_init                                      build/obj/adc_lld.o
                                                  build/obj/adc.o
adc_lld_start                                     build/obj/adc_lld.o
                                                  build/obj/adc.o
adc_lld_start_conversion                          build/obj/adc_lld.o
                                                  build/obj/adc.o
adc_lld_stop                                      build/obj/adc_lld.o
                                                  build/obj/adc.o
adc_lld_stop_conversion                           build/obj/adc_lld.o
                                                  build/obj/adc.o
adc_make_avg                                      build/obj/kb_adc.o
adc_trigger_cb                                    build/obj/kb_adc.o
atan                                              c:/chibistudio/tools/gnu tools arm embedded/4.7 2013q1/bin/../lib/gcc/arm-none-eabi/4.7.3/../../../../arm-none-eabi/lib/armv7e-m\libm.a(lib_a-s_atan.o)
                                                  c:/chibistudio/tools/gnu tools arm embedded/4.7 2013q1/bin/../lib/gcc/arm-none-eabi/4.7.3/../../../../arm-none-eabi/lib/armv7e-m\libm.a(lib_a-e_atan2.o)
atan2                                             c:/chibistudio/tools/gnu tools arm embedded/4.7 2013q1/bin/../lib/gcc/arm-none-eabi/4.7.3/../../../../arm-none-eabi/lib/armv7e-m\libm.a(lib_a-w_atan2.o)
                                                  build/obj/kb_gps.o
boardInit                                         build/obj/board.o
                                                  build/obj/hal.o
btn_0_exti_cb                                     build/obj/kb_buttons.o
                                                  build/obj/main.o
btn_1_exti_cb                                     build/obj/kb_buttons.o
                                                  build/obj/main.o
calc_checksum_16                                  build/obj/kb_util.o
                                                  build/obj/kb_writer.o
                                                  build/obj/kb_gps.o
                                                  build/obj/kb_config.o
calc_checksum_8                                   build/obj/kb_util.o
cardsize_MB                                       build/obj/kb_writer.o
chCondBroadcast                                   build/obj/chcond.o
chCondBroadcastI                                  build/obj/chcond.o
chCondInit                                        build/obj/chcond.o
chCondSignal                                      build/obj/chcond.o
chCondSignalI                                     build/obj/chcond.o
chCondWait                                        build/obj/chcond.o
chCondWaitS                                       build/obj/chcond.o
chCondWaitTimeout                                 build/obj/chcond.o
chCondWaitTimeoutS                                build/obj/chcond.o
chCoreAlloc                                       build/obj/chmemcore.o
                                                  build/obj/chheap.o
chCoreAllocI                                      build/obj/chmemcore.o
chCoreStatus                                      build/obj/chmemcore.o
chDbgCheckClassI                                  build/obj/chdebug.o
                                                  build/obj/serial.o
                                                  build/obj/gpt.o
                                                  build/obj/adc.o
                                                  build/obj/chmempools.o
                                                  build/obj/chmemcore.o
                                                  build/obj/chqueues.o
                                                  build/obj/chmboxes.o
                                                  build/obj/chevents.o
                                                  build/obj/chcond.o
                                                  build/obj/chsem.o
                                                  build/obj/chthreads.o
                                                  build/obj/chschd.o
                                                  build/obj/chvt.o
                                                  build/obj/chsys.o
chDbgCheckClassS                                  build/obj/chdebug.o
                                                  build/obj/chmboxes.o
                                                  build/obj/chcond.o
                                                  build/obj/chmtx.o
                                                  build/obj/chsem.o
                                                  build/obj/chschd.o
chDbgPanic                                        build/obj/chdebug.o
                                                  build/obj/kb_writer.o
                                                  build/obj/spi_lld.o
                                                  build/obj/rtc_lld.o
                                                  build/obj/i2c_lld.o
                                                  build/obj/sdc_lld.o
                                                  build/obj/icu_lld.o
                                                  build/obj/gpt_lld.o
                                                  build/obj/adc_lld.o
                                                  build/obj/stm32_dma.o
                                                  build/obj/spi.o
                                                  build/obj/serial.o
                                                  build/obj/sdc.o
                                                  build/obj/rtc.o
                                                  build/obj/pal.o
                                                  build/obj/mmcsd.o
                                                  build/obj/icu.o
                                                  build/obj/i2c.o
                                                  build/obj/gpt.o
                                                  build/obj/ext.o
                                                  build/obj/adc.o
                                                  build/obj/chmempools.o
                                                  build/obj/chheap.o
                                                  build/obj/chqueues.o
                                                  build/obj/chmboxes.o
                                                  build/obj/chmsg.o
                                                  build/obj/chevents.o
                                                  build/obj/chcond.o
                                                  build/obj/chmtx.o
                                                  build/obj/chsem.o
                                                  build/obj/chregistry.o
                                                  build/obj/chdynamic.o
                                                  build/obj/chthreads.o
                                                  build/obj/chschd.o
                                                  build/obj/chvt.o
chEvtAddEvents                                    build/obj/chevents.o
chEvtBroadcastFlags                               build/obj/chevents.o
chEvtBroadcastFlagsI                              build/obj/chevents.o
                                                  build/obj/serial_lld.o
                                                  build/obj/serial.o
chEvtDispatch                                     build/obj/chevents.o
chEvtGetAndClearEvents                            build/obj/chevents.o
chEvtGetAndClearFlags                             build/obj/chevents.o
chEvtGetAndClearFlagsI                            build/obj/chevents.o
chEvtRegisterMask                                 build/obj/chevents.o
chEvtSignal                                       build/obj/chevents.o
chEvtSignalI                                      build/obj/chevents.o
chEvtUnregister                                   build/obj/chevents.o
chEvtWaitAll                                      build/obj/chevents.o
chEvtWaitAllTimeout                               build/obj/chevents.o
chEvtWaitAny                                      build/obj/chevents.o
chEvtWaitAnyTimeout                               build/obj/chevents.o
chEvtWaitOne                                      build/obj/chevents.o
chEvtWaitOneTimeout                               build/obj/chevents.o
chHeapAlloc                                       build/obj/chheap.o
                                                  build/obj/chdynamic.o
chHeapFree                                        build/obj/chheap.o
                                                  build/obj/chdynamic.o
chHeapInit                                        build/obj/chheap.o
chHeapStatus                                      build/obj/chheap.o
chIQGetTimeout                                    build/obj/chqueues.o
                                                  build/obj/serial.o
chIQInit                                          build/obj/chqueues.o
                                                  build/obj/serial.o
chIQPutI                                          build/obj/chqueues.o
                                                  build/obj/serial.o
chIQReadTimeout                                   build/obj/chqueues.o
                                                  build/obj/kb_gps.o
                                                  build/obj/serial.o
chIQResetI                                        build/obj/chqueues.o
                                                  build/obj/serial.o
chMBFetch                                         build/obj/chmboxes.o
                                                  build/obj/kb_menu.o
chMBFetchI                                        build/obj/chmboxes.o
chMBFetchS                                        build/obj/chmboxes.o
chMBInit                                          build/obj/chmboxes.o
                                                  build/obj/kb_menu.o
chMBPost                                          build/obj/chmboxes.o
chMBPostAhead                                     build/obj/chmboxes.o
chMBPostAheadI                                    build/obj/chmboxes.o
chMBPostAheadS                                    build/obj/chmboxes.o
chMBPostI                                         build/obj/chmboxes.o
                                                  build/obj/kb_menu.o
chMBPostS                                         build/obj/chmboxes.o
chMBReset                                         build/obj/chmboxes.o
chMsgRelease                                      build/obj/chmsg.o
chMsgSend                                         build/obj/chmsg.o
chMsgWait                                         build/obj/chmsg.o
chMtxInit                                         build/obj/chmtx.o
                                                  build/obj/spi.o
                                                  build/obj/i2c.o
                                                  build/obj/adc.o
                                                  build/obj/chheap.o
chMtxLock                                         build/obj/chmtx.o
                                                  build/obj/spi.o
                                                  build/obj/i2c.o
                                                  build/obj/adc.o
                                                  build/obj/chheap.o
chMtxLockS                                        build/obj/chmtx.o
                                                  build/obj/chcond.o
chMtxTryLock                                      build/obj/chmtx.o
chMtxTryLockS                                     build/obj/chmtx.o
chMtxUnlock                                       build/obj/chmtx.o
                                                  build/obj/spi.o
                                                  build/obj/i2c.o
                                                  build/obj/adc.o
                                                  build/obj/chheap.o
chMtxUnlockAll                                    build/obj/chmtx.o
chMtxUnlockS                                      build/obj/chmtx.o
                                                  build/obj/chcond.o
chOQGetI                                          build/obj/chqueues.o
                                                  build/obj/serial_lld.o
                                                  build/obj/serial.o
chOQInit                                          build/obj/chqueues.o
                                                  build/obj/serial.o
chOQPutTimeout                                    build/obj/chqueues.o
                                                  build/obj/serial.o
chOQResetI                                        build/obj/chqueues.o
                                                  build/obj/serial.o
chOQWriteTimeout                                  build/obj/chqueues.o
                                                  build/obj/kb_featureA.o
                                                  build/obj/serial.o
chPoolAlloc                                       build/obj/chmempools.o
                                                  build/obj/chdynamic.o
chPoolAllocI                                      build/obj/chmempools.o
chPoolFree                                        build/obj/chmempools.o
                                                  build/obj/chdynamic.o
chPoolFreeI                                       build/obj/chmempools.o
chPoolInit                                        build/obj/chmempools.o
chPoolLoadArray                                   build/obj/chmempools.o
chRegFirstThread                                  build/obj/chregistry.o
chRegNextThread                                   build/obj/chregistry.o
chSchDoReschedule                                 build/obj/chschd.o
                                                  build/obj/chcore_v7m.o
chSchDoRescheduleAhead                            build/obj/chschd.o
chSchDoRescheduleBehind                           build/obj/chschd.o
                                                  build/obj/chthreads.o
chSchGoSleepS                                     build/obj/chschd.o
                                                  build/obj/kb_writer.o
                                                  build/obj/i2c_lld.o
                                                  build/obj/sdc_lld.o
                                                  build/obj/spi.o
                                                  build/obj/adc.o
                                                  build/obj/chmsg.o
                                                  build/obj/chevents.o
                                                  build/obj/chcond.o
                                                  build/obj/chmtx.o
                                                  build/obj/chsem.o
                                                  build/obj/chthreads.o
chSchGoSleepTimeoutS                              build/obj/chschd.o
                                                  build/obj/chqueues.o
                                                  build/obj/chevents.o
                                                  build/obj/chcond.o
                                                  build/obj/chsem.o
                                                  build/obj/chthreads.o
chSchReadyI                                       build/obj/chschd.o
                                                  build/obj/kb_writer.o
                                                  build/obj/spi_lld.o
                                                  build/obj/i2c_lld.o
                                                  build/obj/sdc_lld.o
                                                  build/obj/adc_lld.o
                                                  build/obj/adc.o
                                                  build/obj/chqueues.o
                                                  build/obj/chmsg.o
                                                  build/obj/chevents.o
                                                  build/obj/chcond.o
                                                  build/obj/chmtx.o
                                                  build/obj/chsem.o
                                                  build/obj/chthreads.o
chSchRescheduleS                                  build/obj/chschd.o
                                                  build/obj/serial.o
                                                  build/obj/chmboxes.o
                                                  build/obj/chevents.o
                                                  build/obj/chcond.o
                                                  build/obj/chmtx.o
                                                  build/obj/chsem.o
                                                  build/obj/chthreads.o
chSchWakeupS                                      build/obj/chschd.o
                                                  build/obj/adc.o
                                                  build/obj/chmsg.o
                                                  build/obj/chcond.o
                                                  build/obj/chmtx.o
                                                  build/obj/chsem.o
                                                  build/obj/chdynamic.o
                                                  build/obj/chthreads.o
chSemAddCounterI                                  build/obj/chsem.o
chSemInit                                         build/obj/chsem.o
                                                  build/obj/kb_writer.o
                                                  build/obj/kb_menu.o
                                                  build/obj/chmboxes.o
chSemReset                                        build/obj/chsem.o
chSemResetI                                       build/obj/chsem.o
                                                  build/obj/chmboxes.o
chSemSignal                                       build/obj/chsem.o
                                                  build/obj/kb_writer.o
chSemSignalI                                      build/obj/chsem.o
                                                  build/obj/chmboxes.o
chSemSignalWait                                   build/obj/chsem.o
chSemWait                                         build/obj/chsem.o
                                                  build/obj/kb_writer.o
chSemWaitS                                        build/obj/chsem.o
chSemWaitTimeout                                  build/obj/chsem.o
chSemWaitTimeoutS                                 build/obj/chsem.o
                                                  build/obj/chmboxes.o
chSysInit                                         build/obj/chsys.o
                                                  build/obj/main.o
chSysTimerHandlerI                                build/obj/chsys.o
                                                  build/obj/chcore_v7m.o
chThdAddRef                                       build/obj/chdynamic.o
chThdCreateFromHeap                               build/obj/chdynamic.o
chThdCreateFromMemoryPool                         build/obj/chdynamic.o
chThdCreateI                                      build/obj/chthreads.o
                                                  build/obj/chdynamic.o
chThdCreateStatic                                 build/obj/chthreads.o
                                                  build/obj/main.o
                                                  build/obj/kb_writer.o
                                                  build/obj/kb_screen.o
                                                  build/obj/kb_gps.o
                                                  build/obj/kb_featureA.o
                                                  build/obj/kb_altimeter.o
                                                  build/obj/chsys.o
chThdExit                                         build/obj/chthreads.o
                                                  build/obj/chcore_v7m.o
chThdExitS                                        build/obj/chthreads.o
chThdRelease                                      build/obj/chdynamic.o
                                                  build/obj/chregistry.o
                                                  build/obj/chthreads.o
chThdResume                                       build/obj/chthreads.o
chThdSetPriority                                  build/obj/chthreads.o
chThdSleep                                        build/obj/chthreads.o
                                                  build/obj/ST7565.o
                                                  build/obj/main.o
                                                  build/obj/kb_writer.o
                                                  build/obj/kb_screen.o
                                                  build/obj/kb_featureA.o
                                                  build/obj/kb_altimeter.o
                                                  build/obj/sdc.o
chThdSleepUntil                                   build/obj/chthreads.o
                                                  build/obj/kb_writer.o
chThdTerminate                                    build/obj/chthreads.o
                                                  build/obj/main.o
                                                  build/obj/kb_writer.o
                                                  build/obj/kb_screen.o
                                                  build/obj/kb_gps.o
                                                  build/obj/kb_featureA.o
                                                  build/obj/kb_altimeter.o
chThdWait                                         build/obj/chthreads.o
                                                  build/obj/main.o
                                                  build/obj/kb_writer.o
                                                  build/obj/kb_screen.o
                                                  build/obj/kb_gps.o
                                                  build/obj/kb_featureA.o
                                                  build/obj/kb_altimeter.o
chThdYield                                        build/obj/chthreads.o
chTimeIsWithin                                    build/obj/chvt.o
chVTResetI                                        build/obj/chvt.o
                                                  build/obj/kb_adc.o
                                                  build/obj/i2c_lld.o
                                                  build/obj/chschd.o
chVTSetI                                          build/obj/chvt.o
                                                  build/obj/kb_adc.o
                                                  build/obj/i2c_lld.o
                                                  build/obj/chschd.o
ch_debug                                          build/obj/chregistry.o
                                                  build/obj/chsys.o
chprintf                                          build/obj/chprintf.o
                                                  build/obj/main.o
                                                  build/obj/kb_writer.o
                                                  build/obj/kb_screen.o
                                                  build/obj/kb_menu.o
                                                  build/obj/kb_featureA.o
                                                  build/obj/kb_debug.o
clust2sect                                        build/obj/ff.o
config                                            build/obj/kb_config.o
copysign                                          c:/chibistudio/tools/gnu tools arm embedded/4.7 2013q1/bin/../lib/gcc/arm-none-eabi/4.7.3/../../../../arm-none-eabi/lib/armv7e-m\libm.a(lib_a-s_copysign.o)
                                                  c:/chibistudio/tools/gnu tools arm embedded/4.7 2013q1/bin/../lib/gcc/arm-none-eabi/4.7.3/../../../../arm-none-eabi/lib/armv7e-m\libm.a(lib_a-s_scalbn.o)
cos                                               c:/chibistudio/tools/gnu tools arm embedded/4.7 2013q1/bin/../lib/gcc/arm-none-eabi/4.7.3/../../../../arm-none-eabi/lib/armv7e-m\libm.a(lib_a-s_cos.o)
                                                  build/obj/kb_gps.o
current_item                                      build/obj/kb_menu.o
dbg_check_disable                                 build/obj/chdebug.o
                                                  build/obj/main.o
dbg_check_enable                                  build/obj/chdebug.o
                                                  build/obj/chsys.o
dbg_check_enter_isr                               build/obj/chdebug.o
                                                  build/obj/serial_lld.o
                                                  build/obj/i2c_lld.o
                                                  build/obj/sdc_lld.o
                                                  build/obj/icu_lld.o
                                                  build/obj/gpt_lld.o
                                                  build/obj/ext_lld_isr.o
                                                  build/obj/adc_lld.o
                                                  build/obj/stm32_dma.o
                                                  build/obj/chcore_v7m.o
dbg_check_leave_isr                               build/obj/chdebug.o
                                                  build/obj/serial_lld.o
                                                  build/obj/i2c_lld.o
                                                  build/obj/sdc_lld.o
                                                  build/obj/icu_lld.o
                                                  build/obj/gpt_lld.o
                                                  build/obj/ext_lld_isr.o
                                                  build/obj/adc_lld.o
                                                  build/obj/stm32_dma.o
                                                  build/obj/chcore_v7m.o
dbg_check_lock                                    build/obj/chdebug.o
                                                  build/obj/kb_writer.o
                                                  build/obj/kb_vectornav.o
                                                  build/obj/kb_gps.o
                                                  build/obj/kb_adc.o
                                                  build/obj/rtc_lld.o
                                                  build/obj/i2c_lld.o
                                                  build/obj/sdc_lld.o
                                                  build/obj/spi.o
                                                  build/obj/serial.o
                                                  build/obj/sdc.o
                                                  build/obj/rtc.o
                                                  build/obj/icu.o
                                                  build/obj/i2c.o
                                                  build/obj/gpt.o
                                                  build/obj/ext.o
                                                  build/obj/adc.o
                                                  build/obj/chmempools.o
                                                  build/obj/chmemcore.o
                                                  build/obj/chqueues.o
                                                  build/obj/chmboxes.o
                                                  build/obj/chmsg.o
                                                  build/obj/chevents.o
                                                  build/obj/chcond.o
                                                  build/obj/chmtx.o
                                                  build/obj/chsem.o
                                                  build/obj/chregistry.o
                                                  build/obj/chdynamic.o
                                                  build/obj/chthreads.o
                                                  build/obj/chcore_v7m.o
dbg_check_lock_from_isr                           build/obj/chdebug.o
                                                  build/obj/kb_vectornav.o
                                                  build/obj/kb_time.o
                                                  build/obj/kb_gps.o
                                                  build/obj/kb_buttons.o
                                                  build/obj/kb_adc.o
                                                  build/obj/serial_lld.o
                                                  build/obj/spi_lld.o
                                                  build/obj/i2c_lld.o
                                                  build/obj/sdc_lld.o
                                                  build/obj/adc_lld.o
                                                  build/obj/chschd.o
                                                  build/obj/chsys.o
                                                  build/obj/chcore_v7m.o
dbg_check_suspend                                 build/obj/chdebug.o
dbg_check_unlock                                  build/obj/chdebug.o
                                                  build/obj/kb_writer.o
                                                  build/obj/kb_vectornav.o
                                                  build/obj/kb_gps.o
                                                  build/obj/kb_adc.o
                                                  build/obj/rtc_lld.o
                                                  build/obj/i2c_lld.o
                                                  build/obj/sdc_lld.o
                                                  build/obj/spi.o
                                                  build/obj/serial.o
                                                  build/obj/sdc.o
                                                  build/obj/rtc.o
                                                  build/obj/icu.o
                                                  build/obj/i2c.o
                                                  build/obj/gpt.o
                                                  build/obj/ext.o
                                                  build/obj/adc.o
                                                  build/obj/chmempools.o
                                                  build/obj/chmemcore.o
                                                  build/obj/chqueues.o
                                                  build/obj/chmboxes.o
                                                  build/obj/chmsg.o
                                                  build/obj/chevents.o
                                                  build/obj/chcond.o
                                                  build/obj/chmtx.o
                                                  build/obj/chsem.o
                                                  build/obj/chregistry.o
                                                  build/obj/chdynamic.o
                                                  build/obj/chthreads.o
                                                  build/obj/chcore_v7m.o
dbg_check_unlock_from_isr                         build/obj/chdebug.o
                                                  build/obj/kb_vectornav.o
                                                  build/obj/kb_time.o
                                                  build/obj/kb_gps.o
                                                  build/obj/kb_buttons.o
                                                  build/obj/kb_adc.o
                                                  build/obj/serial_lld.o
                                                  build/obj/spi_lld.o
                                                  build/obj/i2c_lld.o
                                                  build/obj/sdc_lld.o
                                                  build/obj/adc_lld.o
                                                  build/obj/chschd.o
                                                  build/obj/chsys.o
                                                  build/obj/chcore_v7m.o
dbg_isr_cnt                                       build/obj/chdebug.o
dbg_lock_cnt                                      build/obj/chdebug.o
dbg_panic_msg                                     build/obj/chdebug.o
dbg_trace                                         build/obj/chdebug.o
                                                  build/obj/chschd.o
dbg_trace_buffer                                  build/obj/chdebug.o
disk_initialize                                   build/obj/fatfs_diskio.o
                                                  build/obj/ff.o
disk_ioctl                                        build/obj/fatfs_diskio.o
                                                  build/obj/ff.o
disk_read                                         build/obj/fatfs_diskio.o
                                                  build/obj/ff.o
disk_status                                       build/obj/fatfs_diskio.o
                                                  build/obj/ff.o
disk_write                                        build/obj/fatfs_diskio.o
                                                  build/obj/ff.o
div                                               c:/chibistudio/tools/gnu tools arm embedded/4.7 2013q1/bin/../lib/gcc/arm-none-eabi/4.7.3/../../../../arm-none-eabi/lib/armv7e-m\libc.a(lib_a-div.o)
                                                  c:/chibistudio/tools/gnu tools arm embedded/4.7 2013q1/bin/../lib/gcc/arm-none-eabi/4.7.3/../../../../arm-none-eabi/lib/armv7e-m\libc.a(lib_a-mktime.o)
dmaInit                                           build/obj/stm32_dma.o
                                                  build/obj/hal_lld.o
dmaStreamAllocate                                 build/obj/stm32_dma.o
                                                  build/obj/spi_lld.o
                                                  build/obj/i2c_lld.o
                                                  build/obj/sdc_lld.o
                                                  build/obj/adc_lld.o
dmaStreamRelease                                  build/obj/stm32_dma.o
                                                  build/obj/spi_lld.o
                                                  build/obj/i2c_lld.o
                                                  build/obj/sdc_lld.o
                                                  build/obj/adc_lld.o
ecef_to_lla                                       build/obj/kb_gps.o
                                                  build/obj/kb_screen.o
extChannelDisable                                 build/obj/ext.o
extChannelEnable                                  build/obj/ext.o
extInit                                           build/obj/ext.o
                                                  build/obj/hal.o
extObjectInit                                     build/obj/ext.o
                                                  build/obj/ext_lld.o
extSetChannelModeI                                build/obj/ext.o
extStart                                          build/obj/ext.o
                                                  build/obj/main.o
extStop                                           build/obj/ext.o
                                                  build/obj/main.o
ext_lld_channel_disable                           build/obj/ext_lld.o
                                                  build/obj/ext.o
ext_lld_channel_enable                            build/obj/ext_lld.o
                                                  build/obj/ext.o
ext_lld_exti_irq_disable                          build/obj/ext_lld_isr.o
                                                  build/obj/ext_lld.o
ext_lld_exti_irq_enable                           build/obj/ext_lld_isr.o
                                                  build/obj/ext_lld.o
ext_lld_init                                      build/obj/ext_lld.o
                                                  build/obj/ext.o
ext_lld_start                                     build/obj/ext_lld.o
                                                  build/obj/ext.o
ext_lld_stop                                      build/obj/ext_lld.o
                                                  build/obj/ext.o
f_chmod                                           build/obj/ff.o
f_close                                           build/obj/ff.o
                                                  build/obj/kb_writer.o
f_getfree                                         build/obj/ff.o
                                                  build/obj/kb_writer.o
f_getlabel                                        build/obj/ff.o
f_lseek                                           build/obj/ff.o
f_mkdir                                           build/obj/ff.o
                                                  build/obj/kb_writer.o
f_mkfs                                            build/obj/ff.o
f_mount                                           build/obj/ff.o
                                                  build/obj/kb_writer.o
f_open                                            build/obj/ff.o
                                                  build/obj/kb_writer.o
f_opendir                                         build/obj/ff.o
                                                  build/obj/kb_writer.o
f_read                                            build/obj/ff.o
f_readdir                                         build/obj/ff.o
f_rename                                          build/obj/ff.o
f_setlabel                                        build/obj/ff.o
f_stat                                            build/obj/ff.o
f_sync                                            build/obj/ff.o
                                                  build/obj/kb_writer.o
f_truncate                                        build/obj/ff.o
f_unlink                                          build/obj/ff.o
f_utime                                           build/obj/ff.o
f_write                                           build/obj/ff.o
                                                  build/obj/kb_writer.o
fabs                                              c:/chibistudio/tools/gnu tools arm embedded/4.7 2013q1/bin/../lib/gcc/arm-none-eabi/4.7.3/../../../../arm-none-eabi/lib/armv7e-m\libm.a(lib_a-s_fabs.o)
                                                  c:/chibistudio/tools/gnu tools arm embedded/4.7 2013q1/bin/../lib/gcc/arm-none-eabi/4.7.3/../../../../arm-none-eabi/lib/armv7e-m\libm.a(lib_a-s_atan.o)
                                                  c:/chibistudio/tools/gnu tools arm embedded/4.7 2013q1/bin/../lib/gcc/arm-none-eabi/4.7.3/../../../../arm-none-eabi/lib/armv7e-m\libm.a(lib_a-e_rem_pio2.o)
                                                  c:/chibistudio/tools/gnu tools arm embedded/4.7 2013q1/bin/../lib/gcc/arm-none-eabi/4.7.3/../../../../arm-none-eabi/lib/armv7e-m\libm.a(lib_a-e_pow.o)
                                                  c:/chibistudio/tools/gnu tools arm embedded/4.7 2013q1/bin/../lib/gcc/arm-none-eabi/4.7.3/../../../../arm-none-eabi/lib/armv7e-m\libm.a(lib_a-e_atan2.o)
finite                                            c:/chibistudio/tools/gnu tools arm embedded/4.7 2013q1/bin/../lib/gcc/arm-none-eabi/4.7.3/../../../../arm-none-eabi/lib/armv7e-m\libm.a(lib_a-s_finite.o)
                                                  c:/chibistudio/tools/gnu tools arm embedded/4.7 2013q1/bin/../lib/gcc/arm-none-eabi/4.7.3/../../../../arm-none-eabi/lib/armv7e-m\libm.a(lib_a-w_pow.o)
floor                                             c:/chibistudio/tools/gnu tools arm embedded/4.7 2013q1/bin/../lib/gcc/arm-none-eabi/4.7.3/../../../../arm-none-eabi/lib/armv7e-m\libm.a(lib_a-s_floor.o)
                                                  c:/chibistudio/tools/gnu tools arm embedded/4.7 2013q1/bin/../lib/gcc/arm-none-eabi/4.7.3/../../../../arm-none-eabi/lib/armv7e-m\libm.a(lib_a-k_rem_pio2.o)
get_fat                                           build/obj/ff.o
get_fattime                                       build/obj/fatfs_diskio.o
                                                  build/obj/ff.o
gps_timepulse_exti_cb                             build/obj/kb_gps.o
                                                  build/obj/main.o
gptChangeInterval                                 build/obj/gpt.o
gptInit                                           build/obj/gpt.o
                                                  build/obj/hal.o
gptObjectInit                                     build/obj/gpt.o
                                                  build/obj/gpt_lld.o
gptPolledDelay                                    build/obj/gpt.o
                                                  build/obj/kb_vectornav.o
gptStart                                          build/obj/gpt.o
                                                  build/obj/kb_vectornav.o
gptStartContinuous                                build/obj/gpt.o
gptStartContinuousI                               build/obj/gpt.o
gptStartOneShot                                   build/obj/gpt.o
gptStartOneShotI                                  build/obj/gpt.o
                                                  build/obj/kb_vectornav.o
gptStop                                           build/obj/gpt.o
                                                  build/obj/kb_vectornav.o
gptStopTimer                                      build/obj/gpt.o
gptStopTimerI                                     build/obj/gpt.o
gpt_lld_init                                      build/obj/gpt_lld.o
                                                  build/obj/gpt.o
gpt_lld_polled_delay                              build/obj/gpt_lld.o
                                                  build/obj/gpt.o
gpt_lld_start                                     build/obj/gpt_lld.o
                                                  build/obj/gpt.o
gpt_lld_start_timer                               build/obj/gpt_lld.o
                                                  build/obj/gpt.o
gpt_lld_stop                                      build/obj/gpt_lld.o
                                                  build/obj/gpt.o
gpt_lld_stop_timer                                build/obj/gpt_lld.o
                                                  build/obj/gpt.o
halInit                                           build/obj/hal.o
                                                  build/obj/main.o
halIsCounterWithin                                build/obj/hal.o
halPolledDelay                                    build/obj/hal.o
hal_lld_init                                      build/obj/hal_lld.o
                                                  build/obj/hal.o
hard_fault_handler_c                              build/obj/kb_debug.o
                                                  build/obj/kb_debug_asm.o
i2cAcquireBus                                     build/obj/i2c.o
                                                  build/obj/kb_altimeter.o
i2cGetErrors                                      build/obj/i2c.o
                                                  build/obj/kb_altimeter.o
i2cInit                                           build/obj/i2c.o
                                                  build/obj/hal.o
i2cMasterReceiveTimeout                           build/obj/i2c.o
i2cMasterTransmitTimeout                          build/obj/i2c.o
                                                  build/obj/kb_altimeter.o
i2cObjectInit                                     build/obj/i2c.o
                                                  build/obj/i2c_lld.o
i2cReleaseBus                                     build/obj/i2c.o
                                                  build/obj/kb_altimeter.o
i2cStart                                          build/obj/i2c.o
                                                  build/obj/main.o
i2cStop                                           build/obj/i2c.o
i2c_lld_init                                      build/obj/i2c_lld.o
                                                  build/obj/i2c.o
i2c_lld_master_receive_timeout                    build/obj/i2c_lld.o
                                                  build/obj/i2c.o
i2c_lld_master_transmit_timeout                   build/obj/i2c_lld.o
                                                  build/obj/i2c.o
i2c_lld_start                                     build/obj/i2c_lld.o
                                                  build/obj/i2c.o
i2c_lld_stop                                      build/obj/i2c_lld.o
                                                  build/obj/i2c.o
icuDisable                                        build/obj/icu.o
icuEnable                                         build/obj/icu.o
icuInit                                           build/obj/icu.o
                                                  build/obj/hal.o
icuObjectInit                                     build/obj/icu.o
                                                  build/obj/icu_lld.o
icuStart                                          build/obj/icu.o
icuStop                                           build/obj/icu.o
icu_lld_disable                                   build/obj/icu_lld.o
                                                  build/obj/icu.o
icu_lld_enable                                    build/obj/icu_lld.o
                                                  build/obj/icu.o
icu_lld_init                                      build/obj/icu_lld.o
                                                  build/obj/icu.o
icu_lld_start                                     build/obj/icu_lld.o
                                                  build/obj/icu.o
icu_lld_stop                                      build/obj/icu_lld.o
                                                  build/obj/icu.o
is_btn_0_pressed                                  build/obj/kb_buttons.o
is_btn_1_pressed                                  build/obj/kb_buttons.o
kbc_load                                          build/obj/kb_config.o
kbc_read                                          build/obj/kb_config.o
kbc_read16                                        build/obj/kb_config.o
kbc_read32                                        build/obj/kb_config.o
kbc_read8                                         build/obj/kb_config.o
kbc_save                                          build/obj/kb_config.o
                                                  build/obj/kb_menu.o
kbc_write                                         build/obj/kb_config.o
kbc_write16                                       build/obj/kb_config.o
kbc_write32                                       build/obj/kb_config.o
kbc_write8                                        build/obj/kb_config.o
kbfa_changeFeature                                build/obj/kb_featureA.o
                                                  build/obj/kb_menu.o
kbfa_getFeature                                   build/obj/kb_featureA.o
                                                  build/obj/kb_menu.o
                                                  build/obj/kb_config.o
kbfa_setFeature                                   build/obj/kb_featureA.o
                                                  build/obj/kb_config.o
kbfile                                            build/obj/kb_writer.o
kbg_getUbxNavSol                                  build/obj/kb_gps.o
                                                  build/obj/kb_menu.o
kbm_btn0                                          build/obj/kb_menu.o
                                                  build/obj/kb_buttons.o
kbm_btn1                                          build/obj/kb_menu.o
                                                  build/obj/kb_buttons.o
kbm_display                                       build/obj/kb_menu.o
                                                  build/obj/kb_screen.o
kbs_PPS                                           build/obj/kb_screen.o
                                                  build/obj/kb_gps.o
kbs_btn0                                          build/obj/kb_screen.o
                                                  build/obj/kb_buttons.o
kbs_btn1                                          build/obj/kb_screen.o
                                                  build/obj/kb_buttons.o
kbs_setFName                                      build/obj/kb_screen.o
                                                  build/obj/kb_writer.o
kbs_setGpsEcef                                    build/obj/kb_screen.o
                                                  build/obj/kb_gps.o
kbs_setLTC                                        build/obj/kb_screen.o
                                                  build/obj/kb_time.o
kbs_setSDCFree                                    build/obj/kb_screen.o
                                                  build/obj/kb_writer.o
kbs_setTemperature                                build/obj/kb_screen.o
                                                  build/obj/kb_altimeter.o
kbs_setVoltage                                    build/obj/kb_screen.o
                                                  build/obj/kb_adc.o
kbs_setWriteCount                                 build/obj/kb_screen.o
                                                  build/obj/kb_writer.o
kbs_setWriteErrors                                build/obj/kb_screen.o
                                                  build/obj/kb_writer.o
kbs_setYPR                                        build/obj/kb_screen.o
                                                  build/obj/kb_vectornav.o
kbse_changeBaud                                   build/obj/kb_serial.o
                                                  build/obj/kb_menu.o
kbse_getBaud                                      build/obj/kb_serial.o
                                                  build/obj/kb_menu.o
                                                  build/obj/kb_config.o
kbse_getPower                                     build/obj/kb_serial.o
                                                  build/obj/kb_menu.o
                                                  build/obj/kb_config.o
kbse_setBaud                                      build/obj/kb_serial.o
                                                  build/obj/kb_config.o
kbse_setPower                                     build/obj/kb_serial.o
                                                  build/obj/kb_menu.o
                                                  build/obj/kb_config.o
kbt_getLTC                                        build/obj/kb_time.o
                                                  build/obj/kb_menu.o
                                                  build/obj/kb_featureA.o
kbv_getYPR                                        build/obj/kb_vectornav.o
                                                  build/obj/kb_featureA.o
kbv_readRegister                                  build/obj/kb_vectornav.o
kbw_header_vnav                                   build/obj/kb_writer.o
                                                  build/obj/kb_vectornav.o
kbw_incPPS                                        build/obj/kb_writer.o
                                                  build/obj/kb_gps.o
kbw_setAltitude                                   build/obj/kb_writer.o
                                                  build/obj/kb_altimeter.o
kbw_setGpsNavSol                                  build/obj/kb_writer.o
                                                  build/obj/kb_gps.o
kbw_setLTC                                        build/obj/kb_writer.o
                                                  build/obj/kb_time.o
kbw_setVNav                                       build/obj/kb_writer.o
                                                  build/obj/kb_vectornav.o
kuroBoxADCInit                                    build/obj/kb_adc.o
                                                  build/obj/main.o
kuroBoxADCStop                                    build/obj/kb_adc.o
                                                  build/obj/main.o
kuroBoxAltimeterInit                              build/obj/kb_altimeter.o
                                                  build/obj/main.o
kuroBoxAltimeterStop                              build/obj/kb_altimeter.o
kuroBoxButtonsInit                                build/obj/kb_buttons.o
                                                  build/obj/main.o
kuroBoxButtonsStop                                build/obj/kb_buttons.o
                                                  build/obj/main.o
kuroBoxConfigInit                                 build/obj/kb_config.o
                                                  build/obj/main.o
kuroBoxConfigStop                                 build/obj/kb_config.o
                                                  build/obj/main.o
kuroBoxFeatureAInit                               build/obj/kb_featureA.o
                                                  build/obj/main.o
kuroBoxFeatureAStop                               build/obj/kb_featureA.o
                                                  build/obj/main.o
kuroBoxGPSInit                                    build/obj/kb_gps.o
                                                  build/obj/main.o
kuroBoxGPSStop                                    build/obj/kb_gps.o
                                                  build/obj/main.o
kuroBoxInit                                       build/obj/main.o
kuroBoxMenuInit                                   build/obj/kb_menu.o
                                                  build/obj/main.o
kuroBoxMenuStop                                   build/obj/kb_menu.o
                                                  build/obj/main.o
kuroBoxScreenInit                                 build/obj/kb_screen.o
                                                  build/obj/main.o
kuroBoxScreenStop                                 build/obj/kb_screen.o
                                                  build/obj/main.o
kuroBoxSerialInit                                 build/obj/kb_serial.o
                                                  build/obj/main.o
kuroBoxSerialStop                                 build/obj/kb_serial.o
                                                  build/obj/main.o
kuroBoxStop                                       build/obj/main.o
kuroBoxTimeInit                                   build/obj/kb_time.o
                                                  build/obj/main.o
kuroBoxTimeStop                                   build/obj/kb_time.o
                                                  build/obj/main.o
kuroBoxVectorNavInit                              build/obj/kb_vectornav.o
                                                  build/obj/main.o
kuroBoxVectorNavStop                              build/obj/kb_vectornav.o
                                                  build/obj/main.o
kuroBoxWriterInit                                 build/obj/kb_writer.o
                                                  build/obj/main.o
kuroBoxWriterStop                                 build/obj/kb_writer.o
                                                  build/obj/main.o
kuroBox_panic                                     build/obj/main.o
                                                  build/obj/spi_lld.o
                                                  build/obj/i2c_lld.o
                                                  build/obj/chdebug.o
kuroBox_request_standby                           build/obj/kb_menu.o
                                                  build/obj/main.o
localtime_r                                       c:/chibistudio/tools/gnu tools arm embedded/4.7 2013q1/bin/../lib/gcc/arm-none-eabi/4.7.3/../../../../arm-none-eabi/lib/armv7e-m\libc.a(lib_a-lcltime_r.o)
                                                  build/obj/chrtclib.o
ltc_exti_cb                                       build/obj/kb_time.o
                                                  build/obj/main.o
main                                              build/obj/main.o
                                                  build/obj/crt0.o
matherr                                           c:/chibistudio/tools/gnu tools arm embedded/4.7 2013q1/bin/../lib/gcc/arm-none-eabi/4.7.3/../../../../arm-none-eabi/lib/armv7e-m\libm.a(lib_a-s_matherr.o)
                                                  c:/chibistudio/tools/gnu tools arm embedded/4.7 2013q1/bin/../lib/gcc/arm-none-eabi/4.7.3/../../../../arm-none-eabi/lib/armv7e-m\libm.a(lib_a-w_sqrt.o)
                                                  c:/chibistudio/tools/gnu tools arm embedded/4.7 2013q1/bin/../lib/gcc/arm-none-eabi/4.7.3/../../../../arm-none-eabi/lib/armv7e-m\libm.a(lib_a-w_pow.o)
memcpy                                            c:/chibistudio/tools/gnu tools arm embedded/4.7 2013q1/bin/../lib/gcc/arm-none-eabi/4.7.3/../../../../arm-none-eabi/lib/armv7e-m\libc.a(lib_a-memcpy.o)
                                                  build/obj/ST7565.o
                                                  build/obj/kb_writer.o
                                                  build/obj/kb_vectornav.o
                                                  build/obj/kb_config.o
                                                  build/obj/memstreams.o
                                                  build/obj/sdc_lld.o
memset                                            c:/chibistudio/tools/gnu tools arm embedded/4.7 2013q1/bin/../lib/gcc/arm-none-eabi/4.7.3/../../../../arm-none-eabi/lib/armv7e-m\libc.a(lib_a-memset.o)
                                                  build/obj/ST7565.o
                                                  build/obj/main.o
                                                  build/obj/kb_writer.o
                                                  build/obj/kb_vectornav.o
                                                  build/obj/kb_time.o
                                                  build/obj/kb_screen.o
                                                  build/obj/kb_menu.o
                                                  build/obj/kb_gps.o
                                                  build/obj/kb_config.o
menu_items                                        build/obj/kb_menu.o
mktime                                            c:/chibistudio/tools/gnu tools arm embedded/4.7 2013q1/bin/../lib/gcc/arm-none-eabi/4.7.3/../../../../arm-none-eabi/lib/armv7e-m\libc.a(lib_a-mktime.o)
                                                  build/obj/chrtclib.o
mmcsdGetCapacity                                  build/obj/mmcsd.o
                                                  build/obj/sdc.o
msObjectInit                                      build/obj/memstreams.o
                                                  build/obj/kb_writer.o
                                                  build/obj/kb_screen.o
                                                  build/obj/kb_menu.o
nan                                               c:/chibistudio/tools/gnu tools arm embedded/4.7 2013q1/bin/../lib/gcc/arm-none-eabi/4.7.3/../../../../arm-none-eabi/lib/armv7e-m\libm.a(lib_a-s_nan.o)
                                                  c:/chibistudio/tools/gnu tools arm embedded/4.7 2013q1/bin/../lib/gcc/arm-none-eabi/4.7.3/../../../../arm-none-eabi/lib/armv7e-m\libm.a(lib_a-e_pow.o)
nvicDisableVector                                 build/obj/nvic.o
                                                  build/obj/serial_lld.o
                                                  build/obj/i2c_lld.o
                                                  build/obj/sdc_lld.o
                                                  build/obj/icu_lld.o
                                                  build/obj/gpt_lld.o
                                                  build/obj/ext_lld_isr.o
                                                  build/obj/stm32_dma.o
nvicEnableVector                                  build/obj/nvic.o
                                                  build/obj/serial_lld.o
                                                  build/obj/i2c_lld.o
                                                  build/obj/sdc_lld.o
                                                  build/obj/icu_lld.o
                                                  build/obj/gpt_lld.o
                                                  build/obj/ext_lld_isr.o
                                                  build/obj/adc_lld.o
                                                  build/obj/stm32_dma.o
nvicSetSystemHandlerPriority                      build/obj/nvic.o
                                                  build/obj/chcore_v7m.o
palReadBus                                        build/obj/pal.o
palSetBusMode                                     build/obj/pal.o
palWriteBus                                       build/obj/pal.o
pal_default_config                                build/obj/board.o
                                                  build/obj/hal.o
port_halt                                         build/obj/chcore.o
                                                  build/obj/spi_lld.o
                                                  build/obj/i2c_lld.o
                                                  build/obj/chdebug.o
pow                                               c:/chibistudio/tools/gnu tools arm embedded/4.7 2013q1/bin/../lib/gcc/arm-none-eabi/4.7.3/../../../../arm-none-eabi/lib/armv7e-m\libm.a(lib_a-w_pow.o)
                                                  build/obj/kb_gps.o
put_fat                                           build/obj/ff.o
rint                                              c:/chibistudio/tools/gnu tools arm embedded/4.7 2013q1/bin/../lib/gcc/arm-none-eabi/4.7.3/../../../../arm-none-eabi/lib/armv7e-m\libm.a(lib_a-s_rint.o)
                                                  c:/chibistudio/tools/gnu tools arm embedded/4.7 2013q1/bin/../lib/gcc/arm-none-eabi/4.7.3/../../../../arm-none-eabi/lib/armv7e-m\libm.a(lib_a-w_pow.o)
rlist                                             build/obj/chschd.o
                                                  build/obj/main.o
                                                  build/obj/kb_writer.o
                                                  build/obj/kb_screen.o
                                                  build/obj/kb_gps.o
                                                  build/obj/kb_featureA.o
                                                  build/obj/kb_altimeter.o
                                                  build/obj/i2c_lld.o
                                                  build/obj/sdc_lld.o
                                                  build/obj/spi.o
                                                  build/obj/adc.o
                                                  build/obj/chqueues.o
                                                  build/obj/chmsg.o
                                                  build/obj/chevents.o
                                                  build/obj/chcond.o
                                                  build/obj/chmtx.o
                                                  build/obj/chsem.o
                                                  build/obj/chregistry.o
                                                  build/obj/chthreads.o
                                                  build/obj/chdebug.o
                                                  build/obj/chsys.o
                                                  build/obj/chcore_v7m.o
rtcGetAlarm                                       build/obj/rtc.o
rtcGetPeriodicWakeup_v2                           build/obj/rtc_lld.o
rtcGetTime                                        build/obj/rtc.o
                                                  build/obj/chrtclib.o
rtcGetTimeFat                                     build/obj/rtc.o
                                                  build/obj/fatfs_diskio.o
rtcGetTimeTm                                      build/obj/chrtclib.o
                                                  build/obj/kb_writer.o
                                                  build/obj/kb_screen.o
                                                  build/obj/kb_menu.o
rtcGetTimeUnixSec                                 build/obj/chrtclib.o
rtcGetTimeUnixUsec                                build/obj/chrtclib.o
rtcInit                                           build/obj/rtc.o
                                                  build/obj/hal.o
rtcSetAlarm                                       build/obj/rtc.o
rtcSetPeriodicWakeup_v2                           build/obj/rtc_lld.o
rtcSetTime                                        build/obj/rtc.o
                                                  build/obj/chrtclib.o
rtcSetTimeTm                                      build/obj/chrtclib.o
                                                  build/obj/kb_menu.o
rtcSetTimeUnixSec                                 build/obj/chrtclib.o
rtc_lld_get_alarm                                 build/obj/rtc_lld.o
                                                  build/obj/rtc.o
rtc_lld_get_time                                  build/obj/rtc_lld.o
                                                  build/obj/rtc.o
rtc_lld_get_time_fat                              build/obj/rtc_lld.o
                                                  build/obj/rtc.o
rtc_lld_init                                      build/obj/rtc_lld.o
                                                  build/obj/rtc.o
rtc_lld_set_alarm                                 build/obj/rtc_lld.o
                                                  build/obj/rtc.o
rtc_lld_set_time                                  build/obj/rtc_lld.o
                                                  build/obj/rtc.o
scalbn                                            c:/chibistudio/tools/gnu tools arm embedded/4.7 2013q1/bin/../lib/gcc/arm-none-eabi/4.7.3/../../../../arm-none-eabi/lib/armv7e-m\libm.a(lib_a-s_scalbn.o)
                                                  c:/chibistudio/tools/gnu tools arm embedded/4.7 2013q1/bin/../lib/gcc/arm-none-eabi/4.7.3/../../../../arm-none-eabi/lib/armv7e-m\libm.a(lib_a-k_rem_pio2.o)
                                                  c:/chibistudio/tools/gnu tools arm embedded/4.7 2013q1/bin/../lib/gcc/arm-none-eabi/4.7.3/../../../../arm-none-eabi/lib/armv7e-m\libm.a(lib_a-e_pow.o)
sdIncomingDataI                                   build/obj/serial.o
                                                  build/obj/serial_lld.o
sdInit                                            build/obj/serial.o
                                                  build/obj/hal.o
sdObjectInit                                      build/obj/serial.o
                                                  build/obj/serial_lld.o
sdRequestDataI                                    build/obj/serial.o
sdStart                                           build/obj/serial.o
                                                  build/obj/kb_serial.o
                                                  build/obj/kb_gps.o
sdStop                                            build/obj/serial.o
                                                  build/obj/kb_serial.o
sd_lld_init                                       build/obj/serial_lld.o
                                                  build/obj/serial.o
sd_lld_start                                      build/obj/serial_lld.o
                                                  build/obj/serial.o
sd_lld_stop                                       build/obj/serial_lld.o
                                                  build/obj/serial.o
sdcConnect                                        build/obj/sdc.o
                                                  build/obj/kb_writer.o
sdcDisconnect                                     build/obj/sdc.o
                                                  build/obj/kb_writer.o
sdcErase                                          build/obj/sdc.o
sdcGetAndClearErrors                              build/obj/sdc.o
sdcGetInfo                                        build/obj/sdc.o
sdcInit                                           build/obj/sdc.o
                                                  build/obj/hal.o
sdcObjectInit                                     build/obj/sdc.o
                                                  build/obj/sdc_lld.o
sdcRead                                           build/obj/sdc.o
                                                  build/obj/fatfs_diskio.o
sdcStart                                          build/obj/sdc.o
                                                  build/obj/main.o
sdcStop                                           build/obj/sdc.o
                                                  build/obj/main.o
sdcSync                                           build/obj/sdc.o
sdcWrite                                          build/obj/sdc.o
                                                  build/obj/fatfs_diskio.o
sdc_lld_init                                      build/obj/sdc_lld.o
                                                  build/obj/sdc.o
sdc_lld_is_card_inserted                          build/obj/board.o
                                                  build/obj/kb_writer.o
                                                  build/obj/sdc.o
sdc_lld_is_write_protected                        build/obj/board.o
                                                  build/obj/kb_writer.o
                                                  build/obj/fatfs_diskio.o
                                                  build/obj/sdc.o
sdc_lld_read                                      build/obj/sdc_lld.o
                                                  build/obj/sdc.o
sdc_lld_read_aligned                              build/obj/sdc_lld.o
sdc_lld_send_cmd_long_crc                         build/obj/sdc_lld.o
                                                  build/obj/sdc.o
sdc_lld_send_cmd_none                             build/obj/sdc_lld.o
                                                  build/obj/sdc.o
sdc_lld_send_cmd_short                            build/obj/sdc_lld.o
                                                  build/obj/sdc.o
sdc_lld_send_cmd_short_crc                        build/obj/sdc_lld.o
                                                  build/obj/sdc.o
sdc_lld_set_bus_mode                              build/obj/sdc_lld.o
                                                  build/obj/sdc.o
sdc_lld_set_data_clk                              build/obj/sdc_lld.o
                                                  build/obj/sdc.o
sdc_lld_start                                     build/obj/sdc_lld.o
                                                  build/obj/sdc.o
sdc_lld_start_clk                                 build/obj/sdc_lld.o
                                                  build/obj/sdc.o
sdc_lld_stop                                      build/obj/sdc_lld.o
                                                  build/obj/sdc.o
sdc_lld_stop_clk                                  build/obj/sdc_lld.o
                                                  build/obj/sdc.o
sdc_lld_sync                                      build/obj/sdc_lld.o
                                                  build/obj/sdc.o
sdc_lld_write                                     build/obj/sdc_lld.o
                                                  build/obj/sdc.o
sdc_lld_write_aligned                             build/obj/sdc_lld.o
sin                                               c:/chibistudio/tools/gnu tools arm embedded/4.7 2013q1/bin/../lib/gcc/arm-none-eabi/4.7.3/../../../../arm-none-eabi/lib/armv7e-m\libm.a(lib_a-s_sin.o)
                                                  build/obj/kb_gps.o
spiAcquireBus                                     build/obj/spi.o
spiEepromD1                                       build/obj/spiEEPROM.o
                                                  build/obj/main.o
spiEepromDisableWrite                             build/obj/spiEEPROM.o
spiEepromEnableWrite                              build/obj/spiEEPROM.o
spiEepromReadPage                                 build/obj/spiEEPROM.o
spiEepromReadSR                                   build/obj/spiEEPROM.o
spiEepromStart                                    build/obj/spiEEPROM.o
                                                  build/obj/main.o
spiEepromWritePage                                build/obj/spiEEPROM.o
spiEepromWriteSR                                  build/obj/spiEEPROM.o
spiExchange                                       build/obj/spi.o
spiIgnore                                         build/obj/spi.o
spiInit                                           build/obj/spi.o
                                                  build/obj/hal.o
spiObjectInit                                     build/obj/spi.o
                                                  build/obj/spi_lld.o
spiReceive                                        build/obj/spi.o
spiReleaseBus                                     build/obj/spi.o
spiSelect                                         build/obj/spi.o
                                                  build/obj/ST7565.o
                                                  build/obj/spiEEPROM.o
spiSend                                           build/obj/spi.o
spiStart                                          build/obj/spi.o
                                                  build/obj/ST7565.o
                                                  build/obj/spiEEPROM.o
                                                  build/obj/main.o
                                                  build/obj/kb_vectornav.o
spiStartExchange                                  build/obj/spi.o
spiStartIgnore                                    build/obj/spi.o
spiStartReceive                                   build/obj/spi.o
spiStartSend                                      build/obj/spi.o
spiStop                                           build/obj/spi.o
                                                  build/obj/main.o
                                                  build/obj/kb_vectornav.o
spiUnselect                                       build/obj/spi.o
                                                  build/obj/ST7565.o
                                                  build/obj/spiEEPROM.o
spi_lld_exchange                                  build/obj/spi_lld.o
                                                  build/obj/spi.o
spi_lld_ignore                                    build/obj/spi_lld.o
                                                  build/obj/spi.o
spi_lld_init                                      build/obj/spi_lld.o
                                                  build/obj/spi.o
spi_lld_polled_exchange                           build/obj/spi_lld.o
                                                  build/obj/ST7565.o
                                                  build/obj/spiEEPROM.o
                                                  build/obj/kb_vectornav.o
spi_lld_receive                                   build/obj/spi_lld.o
                                                  build/obj/kb_vectornav.o
                                                  build/obj/spi.o
spi_lld_select                                    build/obj/spi_lld.o
                                                  build/obj/kb_vectornav.o
                                                  build/obj/spi.o
spi_lld_send                                      build/obj/spi_lld.o
                                                  build/obj/kb_vectornav.o
                                                  build/obj/spi.o
spi_lld_start                                     build/obj/spi_lld.o
                                                  build/obj/spi.o
spi_lld_stop                                      build/obj/spi_lld.o
                                                  build/obj/spi.o
spi_lld_unselect                                  build/obj/spi_lld.o
                                                  build/obj/kb_vectornav.o
                                                  build/obj/spi.o
sqrt                                              c:/chibistudio/tools/gnu tools arm embedded/4.7 2013q1/bin/../lib/gcc/arm-none-eabi/4.7.3/../../../../arm-none-eabi/lib/armv7e-m\libm.a(lib_a-w_sqrt.o)
                                                  build/obj/kb_gps.o
st7565Start                                       build/obj/ST7565.o
                                                  build/obj/main.o
st7565_clear                                      build/obj/ST7565.o
                                                  build/obj/kb_screen.o
                                                  build/obj/kb_menu.o
st7565_clear_display                              build/obj/ST7565.o
st7565_display                                    build/obj/ST7565.o
                                                  build/obj/kb_screen.o
                                                  build/obj/kb_menu.o
st7565_drawchar                                   build/obj/ST7565.o
st7565_drawline                                   build/obj/ST7565.o
                                                  build/obj/kb_screen.o
st7565_drawrect                                   build/obj/ST7565.o
st7565_drawstring                                 build/obj/ST7565.o
                                                  build/obj/kb_screen.o
                                                  build/obj/kb_menu.o
st7565_fillrect                                   build/obj/ST7565.o
                                                  build/obj/kb_screen.o
st7565_setpixel                                   build/obj/ST7565.o
stm32_clock_init                                  build/obj/hal_lld.o
                                                  build/obj/board.o
strcpy                                            c:/chibistudio/tools/gnu tools arm embedded/4.7 2013q1/bin/../lib/gcc/arm-none-eabi/4.7.3/../../../../arm-none-eabi/lib/armv7e-m\libc.a(lib_a-strcpy.o)
                                                  build/obj/kb_screen.o
ubx_nav_sol_buffer                                build/obj/kb_gps.o
ubx_nav_sol_idx                                   build/obj/kb_gps.o
ubx_nav_sol_valid                                 build/obj/kb_gps.o
vectornav_dispatch_register                       build/obj/kb_vectornav.o
vectornav_gpt_end_cb                              build/obj/kb_vectornav.o
vectornav_spi_end_cb                              build/obj/kb_vectornav.o
vn_dr_int_exti_cb                                 build/obj/kb_vectornav.o
                                                  build/obj/main.o
vnav_data                                         build/obj/kb_vectornav.o
vtlist                                            build/obj/chvt.o
                                                  build/obj/kb_writer.o
                                                  build/obj/kb_screen.o
                                                  build/obj/chthreads.o
                                                  build/obj/chdebug.o
                                                  build/obj/chsys.o
